GAS LISTING /tmp/cc5zNcZe.s 			page 1


   1              		.file	"MemoryAllocator.cpp"
   2              		.option pic
   3              		.option norelax
   4              		.text
   5              	.Ltext0:
   6              		.align	2
   7              		.globl	_ZN15MemoryAllocator11getInstanceEv
   9              	_ZN15MemoryAllocator11getInstanceEv:
  10              	.LFB3:
  11              		.file 1 "src/MemoryAllocator.cpp"
   1:src/MemoryAllocator.cpp **** #include "../h/MemoryAllocator.h"
   2:src/MemoryAllocator.cpp **** 
   3:src/MemoryAllocator.cpp **** MemoryAllocator& MemoryAllocator::getInstance() {
  12              		.loc 1 3 49
  13              		.cfi_startproc
  14 0000 130101FF 		addi	sp,sp,-16
  15              		.cfi_def_cfa_offset 16
  16 0004 23348100 		sd	s0,8(sp)
  17              		.cfi_offset 8, -8
  18 0008 13040101 		addi	s0,sp,16
  19              		.cfi_def_cfa 8, 0
   4:src/MemoryAllocator.cpp ****     static MemoryAllocator singleton;
  20              		.loc 1 4 5
  21              		.loc 1 4 28 is_stmt 0
  22 000c 97070000 		lbu	a5,.LANCHOR0
  22      83C70700 
  23 0014 639C0700 		bnez	a5,.L2
  24              	.LVL0:
  25              	.LBB5:
  26              	.LBB6:
  27              	.LBB7:
  28              		.file 2 "src/../h/MemoryAllocator.h"
   1:src/../h/MemoryAllocator.h **** 
   2:src/../h/MemoryAllocator.h **** #ifndef PROJECT_BASE_V1_1_MEMORYALLOCATOR_H
   3:src/../h/MemoryAllocator.h **** #define PROJECT_BASE_V1_1_MEMORYALLOCATOR_H
   4:src/../h/MemoryAllocator.h **** 
   5:src/../h/MemoryAllocator.h **** #include <stdbool.h>
   6:src/../h/MemoryAllocator.h **** #include "../lib/hw.h"
   7:src/../h/MemoryAllocator.h **** 
   8:src/../h/MemoryAllocator.h **** struct MemChunk{
   9:src/../h/MemoryAllocator.h ****     size_t size;
  10:src/../h/MemoryAllocator.h ****     MemChunk* next;
  11:src/../h/MemoryAllocator.h ****     bool used;
  12:src/../h/MemoryAllocator.h **** };
  13:src/../h/MemoryAllocator.h **** 
  14:src/../h/MemoryAllocator.h **** class MemoryAllocator{
  15:src/../h/MemoryAllocator.h **** private:
  16:src/../h/MemoryAllocator.h ****     void join();
  17:src/../h/MemoryAllocator.h ****     MemChunk *first_addr;
  18:src/../h/MemoryAllocator.h ****     bool first=true;
  19:src/../h/MemoryAllocator.h **** public:
  20:src/../h/MemoryAllocator.h **** 
  21:src/../h/MemoryAllocator.h ****     MemoryAllocator() {};
  29              		.loc 2 21 23
  30 0018 97070000 		lla	a5,.LANCHOR0
  30      93870700 
  31 0020 13071000 		li	a4,1
GAS LISTING /tmp/cc5zNcZe.s 			page 2


  32 0024 2388E700 		sb	a4,16(a5)
  33              	.LVL1:
  34              	.LBE7:
  35              	.LBE6:
  36              	.LBE5:
  37              		.loc 1 4 28
  38 0028 2380E700 		sb	a4,0(a5)
  39              	.L2:
   5:src/MemoryAllocator.cpp ****     return singleton;
  40              		.loc 1 5 5 is_stmt 1
   6:src/MemoryAllocator.cpp **** }
  41              		.loc 1 6 1 is_stmt 0
  42 002c 17050000 		lla	a0,.LANCHOR0+8
  42      13050500 
  43 0034 03348100 		ld	s0,8(sp)
  44              		.cfi_restore 8
  45              		.cfi_def_cfa 2, 16
  46 0038 13010101 		addi	sp,sp,16
  47              		.cfi_def_cfa_offset 0
  48 003c 67800000 		jr	ra
  49              		.cfi_endproc
  50              	.LFE3:
  52              		.align	2
  53              		.globl	_ZN15MemoryAllocator9mem_allocEm
  55              	_ZN15MemoryAllocator9mem_allocEm:
  56              	.LFB4:
   7:src/MemoryAllocator.cpp **** 
   8:src/MemoryAllocator.cpp **** void* MemoryAllocator::mem_alloc(size_t size){
  57              		.loc 1 8 46 is_stmt 1
  58              		.cfi_startproc
  59              	.LVL2:
  60 0040 130101FF 		addi	sp,sp,-16
  61              		.cfi_def_cfa_offset 16
  62 0044 23348100 		sd	s0,8(sp)
  63              		.cfi_offset 8, -8
  64 0048 13040101 		addi	s0,sp,16
  65              		.cfi_def_cfa 8, 0
   9:src/MemoryAllocator.cpp ****     if(first==true){
  66              		.loc 1 9 5
  67              		.loc 1 9 8 is_stmt 0
  68 004c 83478500 		lbu	a5,8(a0)
  69              		.loc 1 9 5
  70 0050 638E0702 		beqz	a5,.L5
  10:src/MemoryAllocator.cpp ****         first_addr=(MemChunk*)HEAP_START_ADDR;
  71              		.loc 1 10 9 is_stmt 1
  72              		.loc 1 10 19 is_stmt 0
  73 0054 97070000 		la	a5,HEAP_START_ADDR
  73      83B70700 
  74 005c 83B70700 		ld	a5,0(a5)
  75 0060 2330F500 		sd	a5,0(a0)
  11:src/MemoryAllocator.cpp ****         first_addr->size=((uint64)HEAP_END_ADDR-(uint64)HEAP_START_ADDR);
  76              		.loc 1 11 9 is_stmt 1
  77              		.loc 1 11 48 is_stmt 0
  78 0064 17070000 		la	a4,HEAP_END_ADDR
  78      03370700 
  79 006c 03370700 		ld	a4,0(a4)
  80 0070 3307F740 		sub	a4,a4,a5
GAS LISTING /tmp/cc5zNcZe.s 			page 3


  81              		.loc 1 11 25
  82 0074 23B0E700 		sd	a4,0(a5)
  12:src/MemoryAllocator.cpp ****         first_addr->next=nullptr;
  83              		.loc 1 12 9 is_stmt 1
  84 0078 83370500 		ld	a5,0(a0)
  85              		.loc 1 12 25 is_stmt 0
  86 007c 23B40700 		sd	zero,8(a5)
  13:src/MemoryAllocator.cpp ****         first_addr->used=false;
  87              		.loc 1 13 9 is_stmt 1
  88 0080 83370500 		ld	a5,0(a0)
  89              		.loc 1 13 25 is_stmt 0
  90 0084 23880700 		sb	zero,16(a5)
  14:src/MemoryAllocator.cpp ****         first=false;
  91              		.loc 1 14 9 is_stmt 1
  92              		.loc 1 14 14 is_stmt 0
  93 0088 23040500 		sb	zero,8(a0)
  94              	.L5:
  15:src/MemoryAllocator.cpp ****     }
  16:src/MemoryAllocator.cpp ****     if(first_addr==nullptr) return nullptr;
  95              		.loc 1 16 5 is_stmt 1
  96              		.loc 1 16 8 is_stmt 0
  97 008c 03350500 		ld	a0,0(a0)
  98              	.LVL3:
  99              		.loc 1 16 5
 100 0090 630C0506 		beqz	a0,.L4
  17:src/MemoryAllocator.cpp ****     size+=sizeof(MemChunk);
 101              		.loc 1 17 5 is_stmt 1
 102              		.loc 1 17 9 is_stmt 0
 103 0094 93878501 		addi	a5,a1,24
 104              	.LVL4:
  18:src/MemoryAllocator.cpp ****     if(size%MEM_BLOCK_SIZE==0) size/=MEM_BLOCK_SIZE;
 105              		.loc 1 18 5 is_stmt 1
 106              		.loc 1 18 12 is_stmt 0
 107 0098 13F7F703 		andi	a4,a5,63
 108              		.loc 1 18 5
 109 009c 63180700 		bnez	a4,.L7
 110              		.loc 1 18 32 is_stmt 1 discriminator 1
 111              		.loc 1 18 36 is_stmt 0 discriminator 1
 112 00a0 93D76700 		srli	a5,a5,6
 113              	.LVL5:
 114              	.L8:
  19:src/MemoryAllocator.cpp ****     else size=size/MEM_BLOCK_SIZE+1;
  20:src/MemoryAllocator.cpp ****     size*=MEM_BLOCK_SIZE;
 115              		.loc 1 20 5 is_stmt 1
 116              		.loc 1 20 9 is_stmt 0
 117 00a4 93976700 		slli	a5,a5,6
 118              	.LVL6:
  21:src/MemoryAllocator.cpp **** 
  22:src/MemoryAllocator.cpp ****     MemChunk* temp=first_addr;
 119              		.loc 1 22 5 is_stmt 1
 120 00a8 6F004001 		j	.L11
 121              	.LVL7:
 122              	.L7:
  19:src/MemoryAllocator.cpp ****     else size=size/MEM_BLOCK_SIZE+1;
 123              		.loc 1 19 10
  19:src/MemoryAllocator.cpp ****     else size=size/MEM_BLOCK_SIZE+1;
 124              		.loc 1 19 19 is_stmt 0
GAS LISTING /tmp/cc5zNcZe.s 			page 4


 125 00ac 93D76700 		srli	a5,a5,6
 126              	.LVL8:
  19:src/MemoryAllocator.cpp ****     else size=size/MEM_BLOCK_SIZE+1;
 127              		.loc 1 19 14
 128 00b0 93871700 		addi	a5,a5,1
 129              	.LVL9:
 130 00b4 6FF01FFF 		j	.L8
 131              	.LVL10:
 132              	.L10:
  23:src/MemoryAllocator.cpp ****     for(;temp!=nullptr && (temp->size<size || temp->used==true);temp=temp->next);
 133              		.loc 1 23 5 is_stmt 1 discriminator 4
 134              		.loc 1 23 69 is_stmt 0 discriminator 4
 135 00b8 03358500 		ld	a0,8(a0)
 136              	.LVL11:
 137              	.L11:
 138              		.loc 1 23 5 is_stmt 1 discriminator 5
 139              		.loc 1 23 24 discriminator 5
 140 00bc 630A0500 		beqz	a0,.L9
 141              		.loc 1 23 34 is_stmt 0 discriminator 1
 142 00c0 03370500 		ld	a4,0(a0)
 143              		.loc 1 23 24 discriminator 1
 144 00c4 E36AF7FE 		bltu	a4,a5,.L10
 145              		.loc 1 23 53 discriminator 2
 146 00c8 03470501 		lbu	a4,16(a0)
 147              		.loc 1 23 44 discriminator 2
 148 00cc E31607FE 		bnez	a4,.L10
 149              	.L9:
  24:src/MemoryAllocator.cpp ****     if(temp==nullptr) return nullptr;
 150              		.loc 1 24 5 is_stmt 1
 151 00d0 630C0502 		beqz	a0,.L4
  25:src/MemoryAllocator.cpp **** 
  26:src/MemoryAllocator.cpp ****     if(temp->size==size)
 152              		.loc 1 26 5
 153              	.LBB8:
 154              		.loc 1 26 14 is_stmt 0
 155 00d4 03370500 		ld	a4,0(a0)
 156              		.loc 1 26 5
 157 00d8 630EF702 		beq	a4,a5,.L15
 158              	.LBB9:
  27:src/MemoryAllocator.cpp ****     {
  28:src/MemoryAllocator.cpp ****         temp->used=true;
  29:src/MemoryAllocator.cpp ****     }
  30:src/MemoryAllocator.cpp ****     else{
  31:src/MemoryAllocator.cpp ****         MemChunk* new_chunk=(MemChunk*)((uint64)temp+size);
 159              		.loc 1 31 9 is_stmt 1
 160              		.loc 1 31 53 is_stmt 0
 161 00dc B306F500 		add	a3,a0,a5
 162              	.LVL12:
  32:src/MemoryAllocator.cpp ****         new_chunk->size=temp->size-size;
 163              		.loc 1 32 9 is_stmt 1
 164              		.loc 1 32 35 is_stmt 0
 165 00e0 3307F740 		sub	a4,a4,a5
 166              		.loc 1 32 24
 167 00e4 23B0E600 		sd	a4,0(a3)
  33:src/MemoryAllocator.cpp ****         new_chunk->used=false;
 168              		.loc 1 33 9 is_stmt 1
 169              		.loc 1 33 24 is_stmt 0
GAS LISTING /tmp/cc5zNcZe.s 			page 5


 170 00e8 23880600 		sb	zero,16(a3)
  34:src/MemoryAllocator.cpp ****         new_chunk->next=temp->next;
 171              		.loc 1 34 9 is_stmt 1
 172              		.loc 1 34 31 is_stmt 0
 173 00ec 03378500 		ld	a4,8(a0)
 174              		.loc 1 34 24
 175 00f0 23B4E600 		sd	a4,8(a3)
  35:src/MemoryAllocator.cpp ****         temp->next=new_chunk;
 176              		.loc 1 35 9 is_stmt 1
 177              		.loc 1 35 19 is_stmt 0
 178 00f4 2334D500 		sd	a3,8(a0)
  36:src/MemoryAllocator.cpp ****         temp->used=true;
 179              		.loc 1 36 9 is_stmt 1
 180              		.loc 1 36 19 is_stmt 0
 181 00f8 13071000 		li	a4,1
 182 00fc 2308E500 		sb	a4,16(a0)
  37:src/MemoryAllocator.cpp ****         temp->size=size;
 183              		.loc 1 37 9 is_stmt 1
 184              		.loc 1 37 19 is_stmt 0
 185 0100 2330F500 		sd	a5,0(a0)
 186              	.LVL13:
 187              	.L13:
 188              	.LBE9:
 189              	.LBE8:
  38:src/MemoryAllocator.cpp ****     }
  39:src/MemoryAllocator.cpp **** 
  40:src/MemoryAllocator.cpp ****     return (void*)((uint64)temp+sizeof(MemChunk));
 190              		.loc 1 40 5 is_stmt 1
 191              		.loc 1 40 32 is_stmt 0
 192 0104 13058501 		addi	a0,a0,24
 193              	.LVL14:
 194              	.L4:
  41:src/MemoryAllocator.cpp **** }
 195              		.loc 1 41 1
 196 0108 03348100 		ld	s0,8(sp)
 197              		.cfi_remember_state
 198              		.cfi_restore 8
 199              		.cfi_def_cfa 2, 16
 200 010c 13010101 		addi	sp,sp,16
 201              		.cfi_def_cfa_offset 0
 202 0110 67800000 		jr	ra
 203              	.LVL15:
 204              	.L15:
 205              		.cfi_restore_state
 206              	.LBB10:
  28:src/MemoryAllocator.cpp ****     }
 207              		.loc 1 28 9 is_stmt 1
  28:src/MemoryAllocator.cpp ****     }
 208              		.loc 1 28 19 is_stmt 0
 209 0114 93071000 		li	a5,1
 210              	.LVL16:
 211 0118 2308F500 		sb	a5,16(a0)
 212 011c 6FF09FFE 		j	.L13
 213              	.LBE10:
 214              		.cfi_endproc
 215              	.LFE4:
 217              		.align	2
GAS LISTING /tmp/cc5zNcZe.s 			page 6


 218              		.globl	_ZN15MemoryAllocator4joinEv
 220              	_ZN15MemoryAllocator4joinEv:
 221              	.LFB6:
  42:src/MemoryAllocator.cpp **** 
  43:src/MemoryAllocator.cpp **** int MemoryAllocator::mem_free(void* address){
  44:src/MemoryAllocator.cpp **** 
  45:src/MemoryAllocator.cpp ****     address=(void*)((uint64)address-sizeof(MemChunk));
  46:src/MemoryAllocator.cpp ****     if((uint64)address<(uint64)HEAP_START_ADDR || (uint64)address>(uint64)HEAP_END_ADDR) return -1;
  47:src/MemoryAllocator.cpp ****     if(first==true) return -1;
  48:src/MemoryAllocator.cpp ****     if(first_addr==nullptr) return -1;
  49:src/MemoryAllocator.cpp **** 
  50:src/MemoryAllocator.cpp **** 
  51:src/MemoryAllocator.cpp ****     MemChunk* temp=(MemChunk*) address;
  52:src/MemoryAllocator.cpp ****     if(temp->used==false) return -1;
  53:src/MemoryAllocator.cpp ****     temp->used=false;
  54:src/MemoryAllocator.cpp **** 
  55:src/MemoryAllocator.cpp ****     join();
  56:src/MemoryAllocator.cpp **** 
  57:src/MemoryAllocator.cpp ****     return 0;
  58:src/MemoryAllocator.cpp **** }
  59:src/MemoryAllocator.cpp **** 
  60:src/MemoryAllocator.cpp **** void MemoryAllocator::join(){
 222              		.loc 1 60 29 is_stmt 1
 223              		.cfi_startproc
 224              	.LVL17:
 225 0120 130101FF 		addi	sp,sp,-16
 226              		.cfi_def_cfa_offset 16
 227 0124 23348100 		sd	s0,8(sp)
 228              		.cfi_offset 8, -8
 229 0128 13040101 		addi	s0,sp,16
 230              		.cfi_def_cfa 8, 0
  61:src/MemoryAllocator.cpp **** 
  62:src/MemoryAllocator.cpp ****     MemChunk* temp=first_addr;
 231              		.loc 1 62 5
 232              		.loc 1 62 15 is_stmt 0
 233 012c 83370500 		ld	a5,0(a0)
 234              	.LVL18:
  63:src/MemoryAllocator.cpp ****     MemChunk* prev=nullptr;
 235              		.loc 1 63 5 is_stmt 1
 236              		.loc 1 63 15 is_stmt 0
 237 0130 13070000 		li	a4,0
 238 0134 6F004001 		j	.L19
 239              	.LVL19:
 240              	.L20:
  64:src/MemoryAllocator.cpp **** 
  65:src/MemoryAllocator.cpp ****     for(;temp!=nullptr;temp=temp->next)
  66:src/MemoryAllocator.cpp ****     {
  67:src/MemoryAllocator.cpp ****         if(prev==nullptr || (temp->used==true || prev->used==true)){
  68:src/MemoryAllocator.cpp ****             prev=temp;
 241              		.loc 1 68 17
 242 0138 13870700 		mv	a4,a5
 243              	.LVL20:
 244 013c 6F008000 		j	.L18
 245              	.LVL21:
 246              	.L21:
 247 0140 13870700 		mv	a4,a5
 248              	.LVL22:
GAS LISTING /tmp/cc5zNcZe.s 			page 7


 249              	.L18:
  65:src/MemoryAllocator.cpp ****     {
 250              		.loc 1 65 5 is_stmt 1
  65:src/MemoryAllocator.cpp ****     {
 251              		.loc 1 65 28 is_stmt 0
 252 0144 83B78700 		ld	a5,8(a5)
 253              	.LVL23:
 254              	.L19:
  65:src/MemoryAllocator.cpp ****     {
 255              		.loc 1 65 5 is_stmt 1 discriminator 1
  65:src/MemoryAllocator.cpp ****     {
 256              		.loc 1 65 14 discriminator 1
 257 0148 638E0702 		beqz	a5,.L16
  67:src/MemoryAllocator.cpp ****             prev=temp;
 258              		.loc 1 67 9
 259 014c E30607FE 		beqz	a4,.L20
  67:src/MemoryAllocator.cpp ****             prev=temp;
 260              		.loc 1 67 36 is_stmt 0 discriminator 1
 261 0150 83C60701 		lbu	a3,16(a5)
  67:src/MemoryAllocator.cpp ****             prev=temp;
 262              		.loc 1 67 26 discriminator 1
 263 0154 E39606FE 		bnez	a3,.L21
  67:src/MemoryAllocator.cpp ****             prev=temp;
 264              		.loc 1 67 56 discriminator 2
 265 0158 83460701 		lbu	a3,16(a4)
  67:src/MemoryAllocator.cpp ****             prev=temp;
 266              		.loc 1 67 47 discriminator 2
 267 015c 63900602 		bnez	a3,.L22
  69:src/MemoryAllocator.cpp ****         }
  70:src/MemoryAllocator.cpp ****         else{
  71:src/MemoryAllocator.cpp ****             prev->next=temp->next;
 268              		.loc 1 71 13 is_stmt 1
 269              		.loc 1 71 30 is_stmt 0
 270 0160 83B68700 		ld	a3,8(a5)
 271              		.loc 1 71 23
 272 0164 2334D700 		sd	a3,8(a4)
  72:src/MemoryAllocator.cpp ****             prev->size+=temp->size;
 273              		.loc 1 72 13 is_stmt 1
 274              		.loc 1 72 31 is_stmt 0
 275 0168 03B60700 		ld	a2,0(a5)
 276              		.loc 1 72 23
 277 016c 83360700 		ld	a3,0(a4)
 278 0170 B386C600 		add	a3,a3,a2
 279 0174 2330D700 		sd	a3,0(a4)
 280 0178 6FF0DFFC 		j	.L18
 281              	.L22:
  68:src/MemoryAllocator.cpp ****         }
 282              		.loc 1 68 17
 283 017c 13870700 		mv	a4,a5
 284              	.LVL24:
 285 0180 6FF05FFC 		j	.L18
 286              	.LVL25:
 287              	.L16:
  73:src/MemoryAllocator.cpp ****         }
  74:src/MemoryAllocator.cpp ****     }
  75:src/MemoryAllocator.cpp **** }
 288              		.loc 1 75 1
GAS LISTING /tmp/cc5zNcZe.s 			page 8


 289 0184 03348100 		ld	s0,8(sp)
 290              		.cfi_restore 8
 291              		.cfi_def_cfa 2, 16
 292 0188 13010101 		addi	sp,sp,16
 293              		.cfi_def_cfa_offset 0
 294 018c 67800000 		jr	ra
 295              		.cfi_endproc
 296              	.LFE6:
 298              		.align	2
 299              		.globl	_ZN15MemoryAllocator8mem_freeEPv
 301              	_ZN15MemoryAllocator8mem_freeEPv:
 302              	.LFB5:
  43:src/MemoryAllocator.cpp **** 
 303              		.loc 1 43 45 is_stmt 1
 304              		.cfi_startproc
 305              	.LVL26:
  45:src/MemoryAllocator.cpp ****     if((uint64)address<(uint64)HEAP_START_ADDR || (uint64)address>(uint64)HEAP_END_ADDR) return -1;
 306              		.loc 1 45 5
  45:src/MemoryAllocator.cpp ****     if((uint64)address<(uint64)HEAP_START_ADDR || (uint64)address>(uint64)HEAP_END_ADDR) return -1;
 307              		.loc 1 45 36 is_stmt 0
 308 0190 938585FE 		addi	a1,a1,-24
 309              	.LVL27:
  46:src/MemoryAllocator.cpp ****     if(first==true) return -1;
 310              		.loc 1 46 5 is_stmt 1
  46:src/MemoryAllocator.cpp ****     if(first==true) return -1;
 311              		.loc 1 46 23 is_stmt 0
 312 0194 97070000 		la	a5,HEAP_START_ADDR
 312      83B70700 
 313 019c 83B70700 		ld	a5,0(a5)
  46:src/MemoryAllocator.cpp ****     if(first==true) return -1;
 314              		.loc 1 46 5
 315 01a0 63EEF504 		bltu	a1,a5,.L26
  46:src/MemoryAllocator.cpp ****     if(first==true) return -1;
 316              		.loc 1 46 66 discriminator 2
 317 01a4 97070000 		la	a5,HEAP_END_ADDR
 317      83B70700 
 318 01ac 83B70700 		ld	a5,0(a5)
  46:src/MemoryAllocator.cpp ****     if(first==true) return -1;
 319              		.loc 1 46 48 discriminator 2
 320 01b0 63EAB704 		bgtu	a1,a5,.L27
  47:src/MemoryAllocator.cpp ****     if(first_addr==nullptr) return -1;
 321              		.loc 1 47 5 is_stmt 1
  47:src/MemoryAllocator.cpp ****     if(first_addr==nullptr) return -1;
 322              		.loc 1 47 8 is_stmt 0
 323 01b4 83478500 		lbu	a5,8(a0)
  47:src/MemoryAllocator.cpp ****     if(first_addr==nullptr) return -1;
 324              		.loc 1 47 5
 325 01b8 639A0704 		bnez	a5,.L28
  48:src/MemoryAllocator.cpp **** 
 326              		.loc 1 48 5 is_stmt 1
  48:src/MemoryAllocator.cpp **** 
 327              		.loc 1 48 8 is_stmt 0
 328 01bc 83370500 		ld	a5,0(a0)
  48:src/MemoryAllocator.cpp **** 
 329              		.loc 1 48 5
 330 01c0 638A0704 		beqz	a5,.L29
  51:src/MemoryAllocator.cpp ****     if(temp->used==false) return -1;
GAS LISTING /tmp/cc5zNcZe.s 			page 9


 331              		.loc 1 51 5 is_stmt 1
 332              	.LVL28:
  52:src/MemoryAllocator.cpp ****     temp->used=false;
 333              		.loc 1 52 5
  52:src/MemoryAllocator.cpp ****     temp->used=false;
 334              		.loc 1 52 14 is_stmt 0
 335 01c4 83C70501 		lbu	a5,16(a1)
  52:src/MemoryAllocator.cpp ****     temp->used=false;
 336              		.loc 1 52 5
 337 01c8 638A0704 		beqz	a5,.L30
  43:src/MemoryAllocator.cpp **** 
 338              		.loc 1 43 45
 339 01cc 130101FF 		addi	sp,sp,-16
 340              		.cfi_def_cfa_offset 16
 341 01d0 23341100 		sd	ra,8(sp)
 342 01d4 23308100 		sd	s0,0(sp)
 343              		.cfi_offset 1, -8
 344              		.cfi_offset 8, -16
 345 01d8 13040101 		addi	s0,sp,16
 346              		.cfi_def_cfa 8, 0
  53:src/MemoryAllocator.cpp **** 
 347              		.loc 1 53 5 is_stmt 1
  53:src/MemoryAllocator.cpp **** 
 348              		.loc 1 53 15 is_stmt 0
 349 01dc 23880500 		sb	zero,16(a1)
  55:src/MemoryAllocator.cpp **** 
 350              		.loc 1 55 5 is_stmt 1
  55:src/MemoryAllocator.cpp **** 
 351              		.loc 1 55 9 is_stmt 0
 352 01e0 97000000 		call	_ZN15MemoryAllocator4joinEv
 352      E7800000 
 353              	.LVL29:
  57:src/MemoryAllocator.cpp **** }
 354              		.loc 1 57 5 is_stmt 1
  57:src/MemoryAllocator.cpp **** }
 355              		.loc 1 57 12 is_stmt 0
 356 01e8 13050000 		li	a0,0
  58:src/MemoryAllocator.cpp **** 
 357              		.loc 1 58 1
 358 01ec 83308100 		ld	ra,8(sp)
 359              		.cfi_restore 1
 360 01f0 03340100 		ld	s0,0(sp)
 361              		.cfi_restore 8
 362              		.cfi_def_cfa 2, 16
 363 01f4 13010101 		addi	sp,sp,16
 364              		.cfi_def_cfa_offset 0
 365 01f8 67800000 		jr	ra
 366              	.LVL30:
 367              	.L26:
  46:src/MemoryAllocator.cpp ****     if(first==true) return -1;
 368              		.loc 1 46 98
 369 01fc 1305F0FF 		li	a0,-1
 370              	.LVL31:
 371 0200 67800000 		ret
 372              	.LVL32:
 373              	.L27:
 374 0204 1305F0FF 		li	a0,-1
GAS LISTING /tmp/cc5zNcZe.s 			page 10


 375              	.LVL33:
 376 0208 67800000 		ret
 377              	.LVL34:
 378              	.L28:
  47:src/MemoryAllocator.cpp ****     if(first_addr==nullptr) return -1;
 379              		.loc 1 47 29
 380 020c 1305F0FF 		li	a0,-1
 381              	.LVL35:
 382 0210 67800000 		ret
 383              	.LVL36:
 384              	.L29:
  48:src/MemoryAllocator.cpp **** 
 385              		.loc 1 48 37
 386 0214 1305F0FF 		li	a0,-1
 387              	.LVL37:
 388 0218 67800000 		ret
 389              	.LVL38:
 390              	.L30:
  52:src/MemoryAllocator.cpp ****     temp->used=false;
 391              		.loc 1 52 35
 392 021c 1305F0FF 		li	a0,-1
 393              	.LVL39:
  58:src/MemoryAllocator.cpp **** 
 394              		.loc 1 58 1
 395 0220 67800000 		ret
 396              		.cfi_endproc
 397              	.LFE5:
 399              		.bss
 400              		.align	3
 401              		.set	.LANCHOR0,. + 0
 404              	_ZGVZN15MemoryAllocator11getInstanceEvE9singleton:
 405 0000 00000000 		.zero	8
 405      00000000 
 408              	_ZZN15MemoryAllocator11getInstanceEvE9singleton:
 409 0008 00000000 		.zero	16
 409      00000000 
 409      00000000 
 409      00000000 
 410              		.text
 411              	.Letext0:
 412              		.file 3 "src/../h/../lib/hw.h"
GAS LISTING /tmp/cc5zNcZe.s 			page 11

