GAS LISTING /tmp/ccdSFvow.s 			page 1


   1              		.file	"scheduler.cpp"
   2              		.option pic
   3              		.option norelax
   4              		.text
   5              	.Ltext0:
   6              		.align	2
   7              		.globl	_ZN9Scheduler10initializeEv
   9              	_ZN9Scheduler10initializeEv:
  10              	.LFB15:
  11              		.file 1 "src/scheduler.cpp"
   1:src/scheduler.cpp **** #include "../h/scheduler.hpp"
   2:src/scheduler.cpp **** #include "../h/TCB.hpp"
   3:src/scheduler.cpp **** 
   4:src/scheduler.cpp **** Scheduler::Node* Scheduler::head = nullptr;
   5:src/scheduler.cpp **** Scheduler::Node* Scheduler::tail = nullptr;
   6:src/scheduler.cpp **** TCB* Scheduler::idleThread = nullptr;
   7:src/scheduler.cpp **** 
   8:src/scheduler.cpp **** TCB* Scheduler::get(){
   9:src/scheduler.cpp ****     if(idleThread==nullptr) initialize();
  10:src/scheduler.cpp ****     if(head==nullptr) return idleThread;
  11:src/scheduler.cpp ****     Node* temp=head;
  12:src/scheduler.cpp ****     TCB* thread=temp->thread;
  13:src/scheduler.cpp ****     head=head->next;
  14:src/scheduler.cpp **** 
  15:src/scheduler.cpp ****     if(head==nullptr) tail=nullptr;
  16:src/scheduler.cpp **** 
  17:src/scheduler.cpp ****     delete temp;
  18:src/scheduler.cpp ****     return thread;
  19:src/scheduler.cpp **** }
  20:src/scheduler.cpp **** void  Scheduler::put(TCB* thread){
  21:src/scheduler.cpp ****     if(idleThread==nullptr) initialize();
  22:src/scheduler.cpp ****     if(thread==nullptr) return;
  23:src/scheduler.cpp ****     Node* temp = new Node(thread, nullptr);
  24:src/scheduler.cpp **** 
  25:src/scheduler.cpp ****     (head == nullptr ? head : tail->next) = temp;
  26:src/scheduler.cpp ****     tail = temp;
  27:src/scheduler.cpp **** }
  28:src/scheduler.cpp **** 
  29:src/scheduler.cpp **** void Scheduler::initialize() {
  12              		.loc 1 29 30
  13              		.cfi_startproc
  30:src/scheduler.cpp ****     static bool initialized = false;
  14              		.loc 1 30 5
  31:src/scheduler.cpp ****     if (!initialized) {
  15              		.loc 1 31 5
  16              	.LBB5:
  17              		.loc 1 31 9 is_stmt 0
  18 0000 97070000 		lbu	a5,.LANCHOR0
  18      83C70700 
  19              		.loc 1 31 5
  20 0008 63840700 		beqz	a5,.L7
  21 000c 67800000 		ret
  22              	.L7:
  23              	.LBE5:
  29:src/scheduler.cpp ****     static bool initialized = false;
  24              		.loc 1 29 30
  25 0010 130101FF 		addi	sp,sp,-16
GAS LISTING /tmp/ccdSFvow.s 			page 2


  26              		.cfi_def_cfa_offset 16
  27 0014 23341100 		sd	ra,8(sp)
  28 0018 23308100 		sd	s0,0(sp)
  29              		.cfi_offset 1, -8
  30              		.cfi_offset 8, -16
  31 001c 13040101 		addi	s0,sp,16
  32              		.cfi_def_cfa 8, 0
  33              	.LBB7:
  34              	.LBB6:
  32:src/scheduler.cpp ****         TCB::Body fun = TCB::idleThread;
  35              		.loc 1 32 9 is_stmt 1
  36              	.LVL0:
  33:src/scheduler.cpp ****         idleThread = TCB::create(fun, 0, nullptr);
  37              		.loc 1 33 9
  38              		.loc 1 33 33 is_stmt 0
  39 0020 13060000 		li	a2,0
  40 0024 93050000 		li	a1,0
  41 0028 17050000 		la	a0,_ZN3TCB10idleThreadEPv
  41      03350500 
  42 0030 97000000 		call	_ZN3TCB6createEPFvPvEPcS0_@plt
  42      E7800000 
  43              	.LVL1:
  44              		.loc 1 33 20
  45 0038 97070000 		lla	a5,.LANCHOR0
  45      93870700 
  46 0040 23B4A700 		sd	a0,8(a5)
  34:src/scheduler.cpp ****         idleThread->done=1;
  47              		.loc 1 34 9 is_stmt 1
  48              		.loc 1 34 25 is_stmt 0
  49 0044 13071000 		li	a4,1
  50 0048 230CE502 		sb	a4,56(a0)
  35:src/scheduler.cpp ****         initialized = true;
  51              		.loc 1 35 9 is_stmt 1
  52              		.loc 1 35 21 is_stmt 0
  53 004c 2380E700 		sb	a4,0(a5)
  54              	.LBE6:
  55              	.LBE7:
  36:src/scheduler.cpp ****     }
  37:src/scheduler.cpp **** }
  56              		.loc 1 37 1
  57 0050 83308100 		ld	ra,8(sp)
  58              		.cfi_restore 1
  59 0054 03340100 		ld	s0,0(sp)
  60              		.cfi_restore 8
  61              		.cfi_def_cfa 2, 16
  62 0058 13010101 		addi	sp,sp,16
  63              		.cfi_def_cfa_offset 0
  64 005c 67800000 		jr	ra
  65              		.cfi_endproc
  66              	.LFE15:
  68              		.align	2
  69              		.globl	_ZN9Scheduler4NodenwEm
  71              	_ZN9Scheduler4NodenwEm:
  72              	.LFB16:
  38:src/scheduler.cpp **** 
  39:src/scheduler.cpp **** void *Scheduler::Node::operator new(size_t size) {
  73              		.loc 1 39 50 is_stmt 1
GAS LISTING /tmp/ccdSFvow.s 			page 3


  74              		.cfi_startproc
  75              	.LVL2:
  76 0060 130101FE 		addi	sp,sp,-32
  77              		.cfi_def_cfa_offset 32
  78 0064 233C1100 		sd	ra,24(sp)
  79 0068 23388100 		sd	s0,16(sp)
  80 006c 23349100 		sd	s1,8(sp)
  81              		.cfi_offset 1, -8
  82              		.cfi_offset 8, -16
  83              		.cfi_offset 9, -24
  84 0070 13040102 		addi	s0,sp,32
  85              		.cfi_def_cfa 8, 0
  86 0074 93040500 		mv	s1,a0
  40:src/scheduler.cpp ****     return MemoryAllocator::getInstance().mem_alloc(size);
  87              		.loc 1 40 5
  88              		.loc 1 40 41 is_stmt 0
  89 0078 97000000 		call	_ZN15MemoryAllocator11getInstanceEv@plt
  89      E7800000 
  90              	.LVL3:
  91              		.loc 1 40 52
  92 0080 93850400 		mv	a1,s1
  93 0084 97000000 		call	_ZN15MemoryAllocator9mem_allocEm@plt
  93      E7800000 
  94              	.LVL4:
  41:src/scheduler.cpp **** }
  95              		.loc 1 41 1
  96 008c 83308101 		ld	ra,24(sp)
  97              		.cfi_restore 1
  98 0090 03340101 		ld	s0,16(sp)
  99              		.cfi_restore 8
 100              		.cfi_def_cfa 2, 32
 101 0094 83348100 		ld	s1,8(sp)
 102              		.cfi_restore 9
 103              	.LVL5:
 104 0098 13010102 		addi	sp,sp,32
 105              		.cfi_def_cfa_offset 0
 106 009c 67800000 		jr	ra
 107              		.cfi_endproc
 108              	.LFE16:
 110              		.align	2
 111              		.globl	_ZN9Scheduler3putEP3TCB
 113              	_ZN9Scheduler3putEP3TCB:
 114              	.LFB14:
  20:src/scheduler.cpp ****     if(idleThread==nullptr) initialize();
 115              		.loc 1 20 34 is_stmt 1
 116              		.cfi_startproc
 117              	.LVL6:
 118 00a0 130101FE 		addi	sp,sp,-32
 119              		.cfi_def_cfa_offset 32
 120 00a4 233C1100 		sd	ra,24(sp)
 121 00a8 23388100 		sd	s0,16(sp)
 122 00ac 23349100 		sd	s1,8(sp)
 123              		.cfi_offset 1, -8
 124              		.cfi_offset 8, -16
 125              		.cfi_offset 9, -24
 126 00b0 13040102 		addi	s0,sp,32
 127              		.cfi_def_cfa 8, 0
GAS LISTING /tmp/ccdSFvow.s 			page 4


 128 00b4 93040500 		mv	s1,a0
  21:src/scheduler.cpp ****     if(thread==nullptr) return;
 129              		.loc 1 21 5
  21:src/scheduler.cpp ****     if(thread==nullptr) return;
 130              		.loc 1 21 18 is_stmt 0
 131 00b8 97070000 		ld	a5,.LANCHOR0+8
 131      83B70700 
  21:src/scheduler.cpp ****     if(thread==nullptr) return;
 132              		.loc 1 21 5
 133 00c0 63880704 		beqz	a5,.L16
 134              	.LVL7:
 135              	.L11:
  22:src/scheduler.cpp ****     Node* temp = new Node(thread, nullptr);
 136              		.loc 1 22 5 is_stmt 1
 137 00c4 638C0402 		beqz	s1,.L10
  23:src/scheduler.cpp **** 
 138              		.loc 1 23 5
  23:src/scheduler.cpp **** 
 139              		.loc 1 23 42 is_stmt 0
 140 00c8 13050001 		li	a0,16
 141 00cc 97000000 		call	_ZN9Scheduler4NodenwEm
 141      E7800000 
 142              	.LVL8:
 143              	.LBB8:
 144              	.LBB9:
 145              		.file 2 "src/../h/scheduler.hpp"
   1:src/../h/scheduler.hpp **** #ifndef PROJECT_BASE_V1_1_SCHEDULER_HPP
   2:src/../h/scheduler.hpp **** #define PROJECT_BASE_V1_1_SCHEDULER_HPP
   3:src/../h/scheduler.hpp **** #include "../h/MemoryAllocator.h"
   4:src/../h/scheduler.hpp **** 
   5:src/../h/scheduler.hpp **** class TCB;
   6:src/../h/scheduler.hpp **** 
   7:src/../h/scheduler.hpp **** 
   8:src/../h/scheduler.hpp **** class Scheduler
   9:src/../h/scheduler.hpp **** {
  10:src/../h/scheduler.hpp **** private:
  11:src/../h/scheduler.hpp ****     struct Node{
  12:src/../h/scheduler.hpp ****         TCB* thread;
  13:src/../h/scheduler.hpp ****         Node* next;
  14:src/../h/scheduler.hpp **** 
  15:src/../h/scheduler.hpp ****         Node(TCB* t, Node* n){
  16:src/../h/scheduler.hpp ****             thread = t;
 146              		.loc 2 16 13 is_stmt 1
 147              		.loc 2 16 20 is_stmt 0
 148 00d4 23309500 		sd	s1,0(a0)
  17:src/../h/scheduler.hpp ****             next = n;
 149              		.loc 2 17 13 is_stmt 1
 150              		.loc 2 17 18 is_stmt 0
 151 00d8 23340500 		sd	zero,8(a0)
 152              	.LVL9:
 153              	.LBE9:
 154              	.LBE8:
  25:src/scheduler.cpp ****     tail = temp;
 155              		.loc 1 25 5 is_stmt 1
  25:src/scheduler.cpp ****     tail = temp;
 156              		.loc 1 25 11 is_stmt 0
 157 00dc 97070000 		ld	a5,.LANCHOR0+16
GAS LISTING /tmp/ccdSFvow.s 			page 5


 157      83B70700 
  25:src/scheduler.cpp ****     tail = temp;
 158              		.loc 1 25 43
 159 00e4 638C0702 		beqz	a5,.L17
  25:src/scheduler.cpp ****     tail = temp;
 160              		.loc 1 25 37 discriminator 2
 161 00e8 97070000 		ld	a5,.LANCHOR0+24
 161      83B70700 
  25:src/scheduler.cpp ****     tail = temp;
 162              		.loc 1 25 43 discriminator 2
 163 00f0 23B4A700 		sd	a0,8(a5)
 164              	.L14:
  26:src/scheduler.cpp **** }
 165              		.loc 1 26 5 is_stmt 1
  26:src/scheduler.cpp **** }
 166              		.loc 1 26 10 is_stmt 0
 167 00f4 97070000 		sd	a0,.LANCHOR0+24,a5
 167      23B0A700 
 168              	.LVL10:
 169              	.L10:
  27:src/scheduler.cpp **** 
 170              		.loc 1 27 1
 171 00fc 83308101 		ld	ra,24(sp)
 172              		.cfi_remember_state
 173              		.cfi_restore 1
 174 0100 03340101 		ld	s0,16(sp)
 175              		.cfi_restore 8
 176              		.cfi_def_cfa 2, 32
 177 0104 83348100 		ld	s1,8(sp)
 178              		.cfi_restore 9
 179              	.LVL11:
 180 0108 13010102 		addi	sp,sp,32
 181              		.cfi_def_cfa_offset 0
 182 010c 67800000 		jr	ra
 183              	.LVL12:
 184              	.L16:
 185              		.cfi_restore_state
  21:src/scheduler.cpp ****     if(thread==nullptr) return;
 186              		.loc 1 21 29 is_stmt 1 discriminator 1
  21:src/scheduler.cpp ****     if(thread==nullptr) return;
 187              		.loc 1 21 39 is_stmt 0 discriminator 1
 188 0110 97000000 		call	_ZN9Scheduler10initializeEv
 188      E7800000 
 189              	.LVL13:
 190 0118 6FF0DFFA 		j	.L11
 191              	.LVL14:
 192              	.L17:
  25:src/scheduler.cpp ****     tail = temp;
 193              		.loc 1 25 43 discriminator 1
 194 011c 97070000 		sd	a0,.LANCHOR0+16,a5
 194      23B0A700 
 195 0124 6FF01FFD 		j	.L14
 196              		.cfi_endproc
 197              	.LFE14:
 199              		.align	2
 200              		.globl	_ZN9Scheduler4NodedlEPv
 202              	_ZN9Scheduler4NodedlEPv:
GAS LISTING /tmp/ccdSFvow.s 			page 6


 203              	.LFB17:
  42:src/scheduler.cpp **** 
  43:src/scheduler.cpp **** void Scheduler::Node::operator delete(void *ptr) {
 204              		.loc 1 43 50 is_stmt 1
 205              		.cfi_startproc
 206              	.LVL15:
 207 0128 130101FE 		addi	sp,sp,-32
 208              		.cfi_def_cfa_offset 32
 209 012c 233C1100 		sd	ra,24(sp)
 210 0130 23388100 		sd	s0,16(sp)
 211 0134 23349100 		sd	s1,8(sp)
 212              		.cfi_offset 1, -8
 213              		.cfi_offset 8, -16
 214              		.cfi_offset 9, -24
 215 0138 13040102 		addi	s0,sp,32
 216              		.cfi_def_cfa 8, 0
 217 013c 93040500 		mv	s1,a0
  44:src/scheduler.cpp ****     MemoryAllocator::getInstance().mem_free(ptr);
 218              		.loc 1 44 5
 219              		.loc 1 44 34 is_stmt 0
 220 0140 97000000 		call	_ZN15MemoryAllocator11getInstanceEv@plt
 220      E7800000 
 221              	.LVL16:
 222              		.loc 1 44 44
 223 0148 93850400 		mv	a1,s1
 224 014c 97000000 		call	_ZN15MemoryAllocator8mem_freeEPv@plt
 224      E7800000 
 225              	.LVL17:
  45:src/scheduler.cpp **** }
 226              		.loc 1 45 1
 227 0154 83308101 		ld	ra,24(sp)
 228              		.cfi_restore 1
 229 0158 03340101 		ld	s0,16(sp)
 230              		.cfi_restore 8
 231              		.cfi_def_cfa 2, 32
 232 015c 83348100 		ld	s1,8(sp)
 233              		.cfi_restore 9
 234              	.LVL18:
 235 0160 13010102 		addi	sp,sp,32
 236              		.cfi_def_cfa_offset 0
 237 0164 67800000 		jr	ra
 238              		.cfi_endproc
 239              	.LFE17:
 241              		.align	2
 242              		.globl	_ZN9Scheduler3getEv
 244              	_ZN9Scheduler3getEv:
 245              	.LFB13:
   8:src/scheduler.cpp ****     if(idleThread==nullptr) initialize();
 246              		.loc 1 8 22 is_stmt 1
 247              		.cfi_startproc
 248 0168 130101FE 		addi	sp,sp,-32
 249              		.cfi_def_cfa_offset 32
 250 016c 233C1100 		sd	ra,24(sp)
 251 0170 23388100 		sd	s0,16(sp)
 252 0174 23349100 		sd	s1,8(sp)
 253              		.cfi_offset 1, -8
 254              		.cfi_offset 8, -16
GAS LISTING /tmp/ccdSFvow.s 			page 7


 255              		.cfi_offset 9, -24
 256 0178 13040102 		addi	s0,sp,32
 257              		.cfi_def_cfa 8, 0
   9:src/scheduler.cpp ****     if(head==nullptr) return idleThread;
 258              		.loc 1 9 5
   9:src/scheduler.cpp ****     if(head==nullptr) return idleThread;
 259              		.loc 1 9 18 is_stmt 0
 260 017c 97070000 		ld	a5,.LANCHOR0+8
 260      83B70700 
   9:src/scheduler.cpp ****     if(head==nullptr) return idleThread;
 261              		.loc 1 9 5
 262 0184 63820704 		beqz	a5,.L26
 263              	.L21:
  10:src/scheduler.cpp ****     Node* temp=head;
 264              		.loc 1 10 5 is_stmt 1
  10:src/scheduler.cpp ****     Node* temp=head;
 265              		.loc 1 10 12 is_stmt 0
 266 0188 17050000 		ld	a0,.LANCHOR0+16
 266      03350500 
  10:src/scheduler.cpp ****     Node* temp=head;
 267              		.loc 1 10 5
 268 0190 63020504 		beqz	a0,.L27
  11:src/scheduler.cpp ****     TCB* thread=temp->thread;
 269              		.loc 1 11 5 is_stmt 1
 270              	.LVL19:
  12:src/scheduler.cpp ****     head=head->next;
 271              		.loc 1 12 5
  12:src/scheduler.cpp ****     head=head->next;
 272              		.loc 1 12 10 is_stmt 0
 273 0194 83340500 		ld	s1,0(a0)
 274              	.LVL20:
  13:src/scheduler.cpp **** 
 275              		.loc 1 13 5 is_stmt 1
  13:src/scheduler.cpp **** 
 276              		.loc 1 13 16 is_stmt 0
 277 0198 83378500 		ld	a5,8(a0)
  13:src/scheduler.cpp **** 
 278              		.loc 1 13 9
 279 019c 17070000 		sd	a5,.LANCHOR0+16,a4
 279      2330F700 
  15:src/scheduler.cpp **** 
 280              		.loc 1 15 5 is_stmt 1
 281 01a4 638E0702 		beqz	a5,.L28
 282              	.L24:
  17:src/scheduler.cpp ****     return thread;
 283              		.loc 1 17 5
  17:src/scheduler.cpp ****     return thread;
 284              		.loc 1 17 12 is_stmt 0
 285 01a8 97000000 		call	_ZN9Scheduler4NodedlEPv
 285      E7800000 
 286              	.LVL21:
  18:src/scheduler.cpp **** }
 287              		.loc 1 18 5 is_stmt 1
 288              	.L20:
  19:src/scheduler.cpp **** void  Scheduler::put(TCB* thread){
 289              		.loc 1 19 1 is_stmt 0
 290 01b0 13850400 		mv	a0,s1
GAS LISTING /tmp/ccdSFvow.s 			page 8


 291 01b4 83308101 		ld	ra,24(sp)
 292              		.cfi_remember_state
 293              		.cfi_restore 1
 294 01b8 03340101 		ld	s0,16(sp)
 295              		.cfi_restore 8
 296              		.cfi_def_cfa 2, 32
 297 01bc 83348100 		ld	s1,8(sp)
 298              		.cfi_restore 9
 299 01c0 13010102 		addi	sp,sp,32
 300              		.cfi_def_cfa_offset 0
 301 01c4 67800000 		jr	ra
 302              	.L26:
 303              		.cfi_restore_state
   9:src/scheduler.cpp ****     if(head==nullptr) return idleThread;
 304              		.loc 1 9 29 is_stmt 1 discriminator 1
   9:src/scheduler.cpp ****     if(head==nullptr) return idleThread;
 305              		.loc 1 9 39 is_stmt 0 discriminator 1
 306 01c8 97000000 		call	_ZN9Scheduler10initializeEv
 306      E7800000 
 307              	.LVL22:
 308 01d0 6FF09FFB 		j	.L21
 309              	.L27:
  10:src/scheduler.cpp ****     Node* temp=head;
 310              		.loc 1 10 23 is_stmt 1 discriminator 1
  10:src/scheduler.cpp ****     Node* temp=head;
 311              		.loc 1 10 30 is_stmt 0 discriminator 1
 312 01d4 97040000 		ld	s1,.LANCHOR0+8
 312      83B40400 
 313 01dc 6FF05FFD 		j	.L20
 314              	.LVL23:
 315              	.L28:
  15:src/scheduler.cpp **** 
 316              		.loc 1 15 23 is_stmt 1 discriminator 1
  15:src/scheduler.cpp **** 
 317              		.loc 1 15 27 is_stmt 0 discriminator 1
 318 01e0 97070000 		sd	zero,.LANCHOR0+24,a5
 318      23B00700 
 319 01e8 6FF01FFC 		j	.L24
 320              		.cfi_endproc
 321              	.LFE13:
 323              		.globl	_ZN9Scheduler10idleThreadE
 324              		.globl	_ZN9Scheduler4tailE
 325              		.globl	_ZN9Scheduler4headE
 326              		.bss
 327              		.align	3
 328              		.set	.LANCHOR0,. + 0
 331              	_ZZN9Scheduler10initializeEvE11initialized:
 332 0000 00       		.zero	1
 333 0001 00000000 		.zero	7
 333      000000
 336              	_ZN9Scheduler10idleThreadE:
 337 0008 00000000 		.zero	8
 337      00000000 
 340              	_ZN9Scheduler4headE:
 341 0010 00000000 		.zero	8
 341      00000000 
 344              	_ZN9Scheduler4tailE:
GAS LISTING /tmp/ccdSFvow.s 			page 9


 345 0018 00000000 		.zero	8
 345      00000000 
 346              		.text
 347              	.Letext0:
 348              		.file 3 "src/../h/../h/../lib/hw.h"
 349              		.file 4 "src/../h/../h/MemoryAllocator.h"
 350              		.file 5 "src/../h/TCB.hpp"
 351              		.file 6 "src/../h/semaphore.hpp"
 352              		.file 7 "src/../h/syscall_c.hpp"
GAS LISTING /tmp/ccdSFvow.s 			page 10

