GAS LISTING /tmp/ccG6FQPH.s 			page 1


   1              		.file	"semaphore.cpp"
   2              		.option pic
   3              		.option norelax
   4              		.text
   5              	.Ltext0:
   6              		.align	2
   7              		.globl	_ZN7SemaforC2Ei
   9              	_ZN7SemaforC2Ei:
  10              	.LFB17:
  11              		.file 1 "src/semaphore.cpp"
   1:src/semaphore.cpp **** 
   2:src/semaphore.cpp **** #include "../h/semaphore.hpp"
   3:src/semaphore.cpp **** 
   4:src/semaphore.cpp **** Semafor *Semafor::create(int val) {
   5:src/semaphore.cpp ****     Semafor* sem = new Semafor(val);
   6:src/semaphore.cpp ****     sem->head=nullptr;
   7:src/semaphore.cpp ****     sem->tail=nullptr;
   8:src/semaphore.cpp ****     return sem;
   9:src/semaphore.cpp **** }
  10:src/semaphore.cpp **** 
  11:src/semaphore.cpp **** void Semafor::wait(Semafor * sem) {
  12:src/semaphore.cpp ****     if(--sem->value<0)
  13:src/semaphore.cpp ****     {
  14:src/semaphore.cpp ****         Block* temp = new Block(TCB::running, nullptr);
  15:src/semaphore.cpp ****         if(sem->head==nullptr) sem->head=temp;
  16:src/semaphore.cpp ****         else sem->tail->next=temp;
  17:src/semaphore.cpp ****         sem->tail=temp;
  18:src/semaphore.cpp ****         TCB::running->setDone();
  19:src/semaphore.cpp ****         TCB::dispatch();
  20:src/semaphore.cpp ****     }
  21:src/semaphore.cpp **** }
  22:src/semaphore.cpp **** 
  23:src/semaphore.cpp **** void Semafor::signal(Semafor *sem) {
  24:src/semaphore.cpp ****     if(sem->value++<0){
  25:src/semaphore.cpp ****         if(sem->head==nullptr) return;
  26:src/semaphore.cpp ****         TCB* thread=sem->head->thread;
  27:src/semaphore.cpp ****         Block* temp = sem->head;
  28:src/semaphore.cpp ****         sem->head=sem->head->next;
  29:src/semaphore.cpp ****         delete temp;
  30:src/semaphore.cpp ****         if(!sem->head) sem->tail=sem->head;
  31:src/semaphore.cpp ****         thread->done=0;
  32:src/semaphore.cpp ****         Scheduler::put(thread);
  33:src/semaphore.cpp ****     }
  34:src/semaphore.cpp **** }
  35:src/semaphore.cpp **** 
  36:src/semaphore.cpp **** Semafor::Semafor(int val) {
  12              		.loc 1 36 1
  13              		.cfi_startproc
  14              	.LVL0:
  15 0000 130101FF 		addi	sp,sp,-16
  16              		.cfi_def_cfa_offset 16
  17 0004 23348100 		sd	s0,8(sp)
  18              		.cfi_offset 8, -8
  19 0008 13040101 		addi	s0,sp,16
  20              		.cfi_def_cfa 8, 0
  21              	.LBB9:
  37:src/semaphore.cpp ****     this->head=nullptr;
GAS LISTING /tmp/ccG6FQPH.s 			page 2


  22              		.loc 1 37 5
  23              		.loc 1 37 15 is_stmt 0
  24 000c 23340500 		sd	zero,8(a0)
  38:src/semaphore.cpp ****     this->tail=nullptr;
  25              		.loc 1 38 5 is_stmt 1
  26              		.loc 1 38 15 is_stmt 0
  27 0010 23380500 		sd	zero,16(a0)
  39:src/semaphore.cpp ****     this->value=val;
  28              		.loc 1 39 5 is_stmt 1
  29              		.loc 1 39 16 is_stmt 0
  30 0014 2320B500 		sw	a1,0(a0)
  31              	.LBE9:
  40:src/semaphore.cpp **** }
  32              		.loc 1 40 1
  33 0018 03348100 		ld	s0,8(sp)
  34              		.cfi_restore 8
  35              		.cfi_def_cfa 2, 16
  36 001c 13010101 		addi	sp,sp,16
  37              		.cfi_def_cfa_offset 0
  38 0020 67800000 		jr	ra
  39              		.cfi_endproc
  40              	.LFE17:
  42              		.globl	_ZN7SemaforC1Ei
  43              		.set	_ZN7SemaforC1Ei,_ZN7SemaforC2Ei
  44              		.align	2
  45              		.globl	_ZN7SemafornwEm
  47              	_ZN7SemafornwEm:
  48              	.LFB19:
  41:src/semaphore.cpp **** 
  42:src/semaphore.cpp **** void *Semafor::operator new(size_t size) {
  49              		.loc 1 42 42 is_stmt 1
  50              		.cfi_startproc
  51              	.LVL1:
  52 0024 130101FE 		addi	sp,sp,-32
  53              		.cfi_def_cfa_offset 32
  54 0028 233C1100 		sd	ra,24(sp)
  55 002c 23388100 		sd	s0,16(sp)
  56 0030 23349100 		sd	s1,8(sp)
  57              		.cfi_offset 1, -8
  58              		.cfi_offset 8, -16
  59              		.cfi_offset 9, -24
  60 0034 13040102 		addi	s0,sp,32
  61              		.cfi_def_cfa 8, 0
  62 0038 93040500 		mv	s1,a0
  43:src/semaphore.cpp ****     return MemoryAllocator::getInstance().mem_alloc(size);
  63              		.loc 1 43 5
  64              		.loc 1 43 41 is_stmt 0
  65 003c 97000000 		call	_ZN15MemoryAllocator11getInstanceEv@plt
  65      E7800000 
  66              	.LVL2:
  67              		.loc 1 43 52
  68 0044 93850400 		mv	a1,s1
  69 0048 97000000 		call	_ZN15MemoryAllocator9mem_allocEm@plt
  69      E7800000 
  70              	.LVL3:
  44:src/semaphore.cpp **** }
  71              		.loc 1 44 1
GAS LISTING /tmp/ccG6FQPH.s 			page 3


  72 0050 83308101 		ld	ra,24(sp)
  73              		.cfi_restore 1
  74 0054 03340101 		ld	s0,16(sp)
  75              		.cfi_restore 8
  76              		.cfi_def_cfa 2, 32
  77 0058 83348100 		ld	s1,8(sp)
  78              		.cfi_restore 9
  79              	.LVL4:
  80 005c 13010102 		addi	sp,sp,32
  81              		.cfi_def_cfa_offset 0
  82 0060 67800000 		jr	ra
  83              		.cfi_endproc
  84              	.LFE19:
  86              		.align	2
  87              		.globl	_ZN7Semafor6createEi
  89              	_ZN7Semafor6createEi:
  90              	.LFB13:
   4:src/semaphore.cpp ****     Semafor* sem = new Semafor(val);
  91              		.loc 1 4 35 is_stmt 1
  92              		.cfi_startproc
  93              	.LVL5:
  94 0064 130101FE 		addi	sp,sp,-32
  95              		.cfi_def_cfa_offset 32
  96 0068 233C1100 		sd	ra,24(sp)
  97 006c 23388100 		sd	s0,16(sp)
  98 0070 23349100 		sd	s1,8(sp)
  99 0074 23302101 		sd	s2,0(sp)
 100              		.cfi_offset 1, -8
 101              		.cfi_offset 8, -16
 102              		.cfi_offset 9, -24
 103              		.cfi_offset 18, -32
 104 0078 13040102 		addi	s0,sp,32
 105              		.cfi_def_cfa 8, 0
 106 007c 13090500 		mv	s2,a0
   5:src/semaphore.cpp ****     sem->head=nullptr;
 107              		.loc 1 5 5
   5:src/semaphore.cpp ****     sem->head=nullptr;
 108              		.loc 1 5 35 is_stmt 0
 109 0080 13058001 		li	a0,24
 110              	.LVL6:
 111 0084 97000000 		call	_ZN7SemafornwEm
 111      E7800000 
 112              	.LVL7:
 113 008c 93040500 		mv	s1,a0
 114 0090 93050900 		mv	a1,s2
 115 0094 97000000 		call	_ZN7SemaforC1Ei
 115      E7800000 
 116              	.LVL8:
   6:src/semaphore.cpp ****     sem->tail=nullptr;
 117              		.loc 1 6 5 is_stmt 1
   6:src/semaphore.cpp ****     sem->tail=nullptr;
 118              		.loc 1 6 14 is_stmt 0
 119 009c 23B40400 		sd	zero,8(s1)
   7:src/semaphore.cpp ****     return sem;
 120              		.loc 1 7 5 is_stmt 1
   7:src/semaphore.cpp ****     return sem;
 121              		.loc 1 7 14 is_stmt 0
GAS LISTING /tmp/ccG6FQPH.s 			page 4


 122 00a0 23B80400 		sd	zero,16(s1)
   8:src/semaphore.cpp **** }
 123              		.loc 1 8 5 is_stmt 1
   9:src/semaphore.cpp **** 
 124              		.loc 1 9 1 is_stmt 0
 125 00a4 13850400 		mv	a0,s1
 126 00a8 83308101 		ld	ra,24(sp)
 127              		.cfi_restore 1
 128 00ac 03340101 		ld	s0,16(sp)
 129              		.cfi_restore 8
 130              		.cfi_def_cfa 2, 32
 131 00b0 83348100 		ld	s1,8(sp)
 132              		.cfi_restore 9
 133              	.LVL9:
 134 00b4 03390100 		ld	s2,0(sp)
 135              		.cfi_restore 18
 136 00b8 13010102 		addi	sp,sp,32
 137              		.cfi_def_cfa_offset 0
 138 00bc 67800000 		jr	ra
 139              		.cfi_endproc
 140              	.LFE13:
 142              		.align	2
 143              		.globl	_ZN7SemafordlEPv
 145              	_ZN7SemafordlEPv:
 146              	.LFB20:
  45:src/semaphore.cpp **** 
  46:src/semaphore.cpp **** void Semafor::operator delete(void *ptr) {
 147              		.loc 1 46 42 is_stmt 1
 148              		.cfi_startproc
 149              	.LVL10:
 150 00c0 130101FE 		addi	sp,sp,-32
 151              		.cfi_def_cfa_offset 32
 152 00c4 233C1100 		sd	ra,24(sp)
 153 00c8 23388100 		sd	s0,16(sp)
 154 00cc 23349100 		sd	s1,8(sp)
 155              		.cfi_offset 1, -8
 156              		.cfi_offset 8, -16
 157              		.cfi_offset 9, -24
 158 00d0 13040102 		addi	s0,sp,32
 159              		.cfi_def_cfa 8, 0
 160 00d4 93040500 		mv	s1,a0
  47:src/semaphore.cpp ****     MemoryAllocator::getInstance().mem_free(ptr);
 161              		.loc 1 47 5
 162              		.loc 1 47 34 is_stmt 0
 163 00d8 97000000 		call	_ZN15MemoryAllocator11getInstanceEv@plt
 163      E7800000 
 164              	.LVL11:
 165              		.loc 1 47 44
 166 00e0 93850400 		mv	a1,s1
 167 00e4 97000000 		call	_ZN15MemoryAllocator8mem_freeEPv@plt
 167      E7800000 
 168              	.LVL12:
  48:src/semaphore.cpp **** }
 169              		.loc 1 48 1
 170 00ec 83308101 		ld	ra,24(sp)
 171              		.cfi_restore 1
 172 00f0 03340101 		ld	s0,16(sp)
GAS LISTING /tmp/ccG6FQPH.s 			page 5


 173              		.cfi_restore 8
 174              		.cfi_def_cfa 2, 32
 175 00f4 83348100 		ld	s1,8(sp)
 176              		.cfi_restore 9
 177              	.LVL13:
 178 00f8 13010102 		addi	sp,sp,32
 179              		.cfi_def_cfa_offset 0
 180 00fc 67800000 		jr	ra
 181              		.cfi_endproc
 182              	.LFE20:
 184              		.align	2
 185              		.globl	_ZN5BlocknwEm
 187              	_ZN5BlocknwEm:
 188              	.LFB21:
  49:src/semaphore.cpp **** 
  50:src/semaphore.cpp **** void *Block::operator new(size_t size) {
 189              		.loc 1 50 40 is_stmt 1
 190              		.cfi_startproc
 191              	.LVL14:
 192 0100 130101FE 		addi	sp,sp,-32
 193              		.cfi_def_cfa_offset 32
 194 0104 233C1100 		sd	ra,24(sp)
 195 0108 23388100 		sd	s0,16(sp)
 196 010c 23349100 		sd	s1,8(sp)
 197              		.cfi_offset 1, -8
 198              		.cfi_offset 8, -16
 199              		.cfi_offset 9, -24
 200 0110 13040102 		addi	s0,sp,32
 201              		.cfi_def_cfa 8, 0
 202 0114 93040500 		mv	s1,a0
  51:src/semaphore.cpp ****     return MemoryAllocator::getInstance().mem_alloc(size);
 203              		.loc 1 51 5
 204              		.loc 1 51 41 is_stmt 0
 205 0118 97000000 		call	_ZN15MemoryAllocator11getInstanceEv@plt
 205      E7800000 
 206              	.LVL15:
 207              		.loc 1 51 52
 208 0120 93850400 		mv	a1,s1
 209 0124 97000000 		call	_ZN15MemoryAllocator9mem_allocEm@plt
 209      E7800000 
 210              	.LVL16:
  52:src/semaphore.cpp **** }
 211              		.loc 1 52 1
 212 012c 83308101 		ld	ra,24(sp)
 213              		.cfi_restore 1
 214 0130 03340101 		ld	s0,16(sp)
 215              		.cfi_restore 8
 216              		.cfi_def_cfa 2, 32
 217 0134 83348100 		ld	s1,8(sp)
 218              		.cfi_restore 9
 219              	.LVL17:
 220 0138 13010102 		addi	sp,sp,32
 221              		.cfi_def_cfa_offset 0
 222 013c 67800000 		jr	ra
 223              		.cfi_endproc
 224              	.LFE21:
 226              		.align	2
GAS LISTING /tmp/ccG6FQPH.s 			page 6


 227              		.globl	_ZN7Semafor4waitEPS_
 229              	_ZN7Semafor4waitEPS_:
 230              	.LFB14:
  11:src/semaphore.cpp ****     if(--sem->value<0)
 231              		.loc 1 11 35 is_stmt 1
 232              		.cfi_startproc
 233              	.LVL18:
  12:src/semaphore.cpp ****     {
 234              		.loc 1 12 5
 235              	.LBB10:
  12:src/semaphore.cpp ****     {
 236              		.loc 1 12 15 is_stmt 0
 237 0140 83270500 		lw	a5,0(a0)
  12:src/semaphore.cpp ****     {
 238              		.loc 1 12 8
 239 0144 9B87F7FF 		addiw	a5,a5,-1
  12:src/semaphore.cpp ****     {
 240              		.loc 1 12 20
 241 0148 2320F500 		sw	a5,0(a0)
  12:src/semaphore.cpp ****     {
 242              		.loc 1 12 5
 243 014c 13970702 		slli	a4,a5,32
 244 0150 63440700 		bltz	a4,.L19
 245 0154 67800000 		ret
 246              	.L19:
 247              	.LBE10:
  11:src/semaphore.cpp ****     if(--sem->value<0)
 248              		.loc 1 11 35
 249 0158 130101FE 		addi	sp,sp,-32
 250              		.cfi_def_cfa_offset 32
 251 015c 233C1100 		sd	ra,24(sp)
 252 0160 23388100 		sd	s0,16(sp)
 253 0164 23349100 		sd	s1,8(sp)
 254              		.cfi_offset 1, -8
 255              		.cfi_offset 8, -16
 256              		.cfi_offset 9, -24
 257 0168 13040102 		addi	s0,sp,32
 258              		.cfi_def_cfa 8, 0
 259 016c 93040500 		mv	s1,a0
 260              	.LBB17:
 261              	.LBB11:
  14:src/semaphore.cpp ****         if(sem->head==nullptr) sem->head=temp;
 262              		.loc 1 14 9 is_stmt 1
  14:src/semaphore.cpp ****         if(sem->head==nullptr) sem->head=temp;
 263              		.loc 1 14 54 is_stmt 0
 264 0170 13050001 		li	a0,16
 265              	.LVL19:
 266 0174 97000000 		call	_ZN5BlocknwEm
 266      E7800000 
 267              	.LVL20:
 268 017c 97070000 		la	a5,_ZN3TCB7runningE
 268      83B70700 
 269 0184 83B70700 		ld	a5,0(a5)
 270              	.LVL21:
 271              	.LBB12:
 272              	.LBB13:
 273              		.file 2 "src/../h/semaphore.hpp"
GAS LISTING /tmp/ccG6FQPH.s 			page 7


   1:src/../h/semaphore.hpp **** #ifndef PROJECT_BASE_V1_1_SEMAPHORE_H
   2:src/../h/semaphore.hpp **** #define PROJECT_BASE_V1_1_SEMAPHORE_H
   3:src/../h/semaphore.hpp **** #include "TCB.hpp"
   4:src/../h/semaphore.hpp **** 
   5:src/../h/semaphore.hpp **** struct Block{
   6:src/../h/semaphore.hpp ****     TCB* thread;
   7:src/../h/semaphore.hpp ****     Block* next;
   8:src/../h/semaphore.hpp **** 
   9:src/../h/semaphore.hpp ****     Block(TCB* t, Block* n){
  10:src/../h/semaphore.hpp ****         thread = t;
 274              		.loc 2 10 9 is_stmt 1
 275              		.loc 2 10 16 is_stmt 0
 276 0188 2330F500 		sd	a5,0(a0)
  11:src/../h/semaphore.hpp ****         next = n;
 277              		.loc 2 11 9 is_stmt 1
 278              		.loc 2 11 14 is_stmt 0
 279 018c 23340500 		sd	zero,8(a0)
 280              	.LVL22:
 281              	.LBE13:
 282              	.LBE12:
  15:src/semaphore.cpp ****         else sem->tail->next=temp;
 283              		.loc 1 15 9 is_stmt 1
  15:src/semaphore.cpp ****         else sem->tail->next=temp;
 284              		.loc 1 15 17 is_stmt 0
 285 0190 83B78400 		ld	a5,8(s1)
  15:src/semaphore.cpp ****         else sem->tail->next=temp;
 286              		.loc 1 15 9
 287 0194 63800704 		beqz	a5,.L20
  16:src/semaphore.cpp ****         sem->tail=temp;
 288              		.loc 1 16 14 is_stmt 1
  16:src/semaphore.cpp ****         sem->tail=temp;
 289              		.loc 1 16 19 is_stmt 0
 290 0198 83B70401 		ld	a5,16(s1)
  16:src/semaphore.cpp ****         sem->tail=temp;
 291              		.loc 1 16 29
 292 019c 23B4A700 		sd	a0,8(a5)
 293              	.L14:
  17:src/semaphore.cpp ****         TCB::running->setDone();
 294              		.loc 1 17 9 is_stmt 1
  17:src/semaphore.cpp ****         TCB::running->setDone();
 295              		.loc 1 17 18 is_stmt 0
 296 01a0 23B8A400 		sd	a0,16(s1)
  18:src/semaphore.cpp ****         TCB::dispatch();
 297              		.loc 1 18 9 is_stmt 1
  18:src/semaphore.cpp ****         TCB::dispatch();
 298              		.loc 1 18 30 is_stmt 0
 299 01a4 97070000 		la	a5,_ZN3TCB7runningE
 299      83B70700 
 300 01ac 83B70700 		ld	a5,0(a5)
 301              	.LVL23:
 302              	.LBB14:
 303              	.LBB15:
 304              		.file 3 "src/../h/TCB.hpp"
   1:src/../h/TCB.hpp **** #ifndef PROJECT_BASE_V1_1_TCB_HPP
   2:src/../h/TCB.hpp **** #define PROJECT_BASE_V1_1_TCB_HPP
   3:src/../h/TCB.hpp **** 
   4:src/../h/TCB.hpp **** #include "scheduler.hpp"
GAS LISTING /tmp/ccG6FQPH.s 			page 8


   5:src/../h/TCB.hpp **** #include "semaphore.hpp"
   6:src/../h/TCB.hpp **** #include "syscall_c.hpp"
   7:src/../h/TCB.hpp **** 
   8:src/../h/TCB.hpp **** class TCB{
   9:src/../h/TCB.hpp **** private:
  10:src/../h/TCB.hpp **** 
  11:src/../h/TCB.hpp **** 
  12:src/../h/TCB.hpp ****     struct Context{
  13:src/../h/TCB.hpp ****         uint64 ra, sp;
  14:src/../h/TCB.hpp ****     };
  15:src/../h/TCB.hpp **** 
  16:src/../h/TCB.hpp **** 
  17:src/../h/TCB.hpp ****     Context context;
  18:src/../h/TCB.hpp **** 
  19:src/../h/TCB.hpp ****     uint64 time_slice;
  20:src/../h/TCB.hpp **** 
  21:src/../h/TCB.hpp ****     Semafor* semaphore;
  22:src/../h/TCB.hpp **** 
  23:src/../h/TCB.hpp ****     char* stack;
  24:src/../h/TCB.hpp ****     void* arg;
  25:src/../h/TCB.hpp **** 
  26:src/../h/TCB.hpp ****     friend class Riscv;
  27:src/../h/TCB.hpp ****     friend class Semaphore;
  28:src/../h/TCB.hpp **** public:
  29:src/../h/TCB.hpp ****     using Body=void(*)(void*);
  30:src/../h/TCB.hpp ****     Body body;
  31:src/../h/TCB.hpp ****     static TCB* running;
  32:src/../h/TCB.hpp ****     bool done;
  33:src/../h/TCB.hpp **** 
  34:src/../h/TCB.hpp **** 
  35:src/../h/TCB.hpp ****     TCB(Body, char*, void*, uint64);
  36:src/../h/TCB.hpp **** 
  37:src/../h/TCB.hpp ****     static TCB* create(Body, char*, void*);
  38:src/../h/TCB.hpp **** 
  39:src/../h/TCB.hpp ****     static void yield(Context* old_context, Context* running_context);
  40:src/../h/TCB.hpp **** 
  41:src/../h/TCB.hpp ****     static void dispatch();
  42:src/../h/TCB.hpp **** 
  43:src/../h/TCB.hpp ****     static int exit();
  44:src/../h/TCB.hpp **** 
  45:src/../h/TCB.hpp ****     static void join(TCB* thread);
  46:src/../h/TCB.hpp **** 
  47:src/../h/TCB.hpp ****     static void idleThread(void* arg);
  48:src/../h/TCB.hpp **** 
  49:src/../h/TCB.hpp ****     static void threadWrapper();
  50:src/../h/TCB.hpp **** 
  51:src/../h/TCB.hpp ****     void setDone() { done=1;}
 305              		.loc 3 51 22 is_stmt 1
 306              		.loc 3 51 26 is_stmt 0
 307 01b0 13071000 		li	a4,1
 308 01b4 238CE702 		sb	a4,56(a5)
 309              	.LVL24:
 310              	.LBE15:
 311              	.LBE14:
  19:src/semaphore.cpp ****     }
 312              		.loc 1 19 9 is_stmt 1
  19:src/semaphore.cpp ****     }
GAS LISTING /tmp/ccG6FQPH.s 			page 9


 313              		.loc 1 19 22 is_stmt 0
 314 01b8 97000000 		call	_ZN3TCB8dispatchEv@plt
 314      E7800000 
 315              	.LVL25:
 316              	.LBE11:
 317              	.LBE17:
  21:src/semaphore.cpp **** 
 318              		.loc 1 21 1
 319 01c0 83308101 		ld	ra,24(sp)
 320              		.cfi_remember_state
 321              		.cfi_restore 1
 322 01c4 03340101 		ld	s0,16(sp)
 323              		.cfi_restore 8
 324              		.cfi_def_cfa 2, 32
 325 01c8 83348100 		ld	s1,8(sp)
 326              		.cfi_restore 9
 327              	.LVL26:
 328 01cc 13010102 		addi	sp,sp,32
 329              		.cfi_def_cfa_offset 0
 330 01d0 67800000 		jr	ra
 331              	.LVL27:
 332              	.L20:
 333              		.cfi_restore_state
 334              	.LBB18:
 335              	.LBB16:
  15:src/semaphore.cpp ****         else sem->tail->next=temp;
 336              		.loc 1 15 32 is_stmt 1 discriminator 1
  15:src/semaphore.cpp ****         else sem->tail->next=temp;
 337              		.loc 1 15 41 is_stmt 0 discriminator 1
 338 01d4 23B4A400 		sd	a0,8(s1)
 339 01d8 6FF09FFC 		j	.L14
 340              	.LBE16:
 341              	.LBE18:
 342              		.cfi_endproc
 343              	.LFE14:
 345              		.align	2
 346              		.globl	_ZN5BlockdlEPv
 348              	_ZN5BlockdlEPv:
 349              	.LFB22:
  53:src/semaphore.cpp **** 
  54:src/semaphore.cpp **** void Block::operator delete(void *ptr) {
 350              		.loc 1 54 40 is_stmt 1
 351              		.cfi_startproc
 352              	.LVL28:
 353 01dc 130101FE 		addi	sp,sp,-32
 354              		.cfi_def_cfa_offset 32
 355 01e0 233C1100 		sd	ra,24(sp)
 356 01e4 23388100 		sd	s0,16(sp)
 357 01e8 23349100 		sd	s1,8(sp)
 358              		.cfi_offset 1, -8
 359              		.cfi_offset 8, -16
 360              		.cfi_offset 9, -24
 361 01ec 13040102 		addi	s0,sp,32
 362              		.cfi_def_cfa 8, 0
 363 01f0 93040500 		mv	s1,a0
  55:src/semaphore.cpp ****     MemoryAllocator::getInstance().mem_free(ptr);
 364              		.loc 1 55 5
GAS LISTING /tmp/ccG6FQPH.s 			page 10


 365              		.loc 1 55 34 is_stmt 0
 366 01f4 97000000 		call	_ZN15MemoryAllocator11getInstanceEv@plt
 366      E7800000 
 367              	.LVL29:
 368              		.loc 1 55 44
 369 01fc 93850400 		mv	a1,s1
 370 0200 97000000 		call	_ZN15MemoryAllocator8mem_freeEPv@plt
 370      E7800000 
 371              	.LVL30:
  56:src/semaphore.cpp **** }
 372              		.loc 1 56 1
 373 0208 83308101 		ld	ra,24(sp)
 374              		.cfi_restore 1
 375 020c 03340101 		ld	s0,16(sp)
 376              		.cfi_restore 8
 377              		.cfi_def_cfa 2, 32
 378 0210 83348100 		ld	s1,8(sp)
 379              		.cfi_restore 9
 380              	.LVL31:
 381 0214 13010102 		addi	sp,sp,32
 382              		.cfi_def_cfa_offset 0
 383 0218 67800000 		jr	ra
 384              		.cfi_endproc
 385              	.LFE22:
 387              		.align	2
 388              		.globl	_ZN7Semafor6signalEPS_
 390              	_ZN7Semafor6signalEPS_:
 391              	.LFB15:
  23:src/semaphore.cpp ****     if(sem->value++<0){
 392              		.loc 1 23 36 is_stmt 1
 393              		.cfi_startproc
 394              	.LVL32:
  24:src/semaphore.cpp ****         if(sem->head==nullptr) return;
 395              		.loc 1 24 5
 396              	.LBB19:
  24:src/semaphore.cpp ****         if(sem->head==nullptr) return;
 397              		.loc 1 24 13 is_stmt 0
 398 021c 83270500 		lw	a5,0(a0)
  24:src/semaphore.cpp ****         if(sem->head==nullptr) return;
 399              		.loc 1 24 18
 400 0220 1B871700 		addiw	a4,a5,1
 401 0224 2320E500 		sw	a4,0(a0)
  24:src/semaphore.cpp ****         if(sem->head==nullptr) return;
 402              		.loc 1 24 5
 403 0228 63C40700 		bltz	a5,.L30
 404 022c 67800000 		ret
 405              	.L30:
 406              	.LBE19:
  23:src/semaphore.cpp ****     if(sem->value++<0){
 407              		.loc 1 23 36
 408 0230 130101FE 		addi	sp,sp,-32
 409              		.cfi_def_cfa_offset 32
 410 0234 233C1100 		sd	ra,24(sp)
 411 0238 23388100 		sd	s0,16(sp)
 412 023c 23349100 		sd	s1,8(sp)
 413 0240 23302101 		sd	s2,0(sp)
 414              		.cfi_offset 1, -8
GAS LISTING /tmp/ccG6FQPH.s 			page 11


 415              		.cfi_offset 8, -16
 416              		.cfi_offset 9, -24
 417              		.cfi_offset 18, -32
 418 0244 13040102 		addi	s0,sp,32
 419              		.cfi_def_cfa 8, 0
 420 0248 93040500 		mv	s1,a0
 421              	.LBB22:
 422              	.LBB20:
  25:src/semaphore.cpp ****         TCB* thread=sem->head->thread;
 423              		.loc 1 25 9 is_stmt 1
  25:src/semaphore.cpp ****         TCB* thread=sem->head->thread;
 424              		.loc 1 25 17 is_stmt 0
 425 024c 03358500 		ld	a0,8(a0)
 426              	.LVL33:
  25:src/semaphore.cpp ****         TCB* thread=sem->head->thread;
 427              		.loc 1 25 9
 428 0250 63080502 		beqz	a0,.L23
  26:src/semaphore.cpp ****         Block* temp = sem->head;
 429              		.loc 1 26 9 is_stmt 1
  26:src/semaphore.cpp ****         Block* temp = sem->head;
 430              		.loc 1 26 14 is_stmt 0
 431 0254 03390500 		ld	s2,0(a0)
 432              	.LVL34:
  27:src/semaphore.cpp ****         sem->head=sem->head->next;
 433              		.loc 1 27 9 is_stmt 1
  28:src/semaphore.cpp ****         delete temp;
 434              		.loc 1 28 9
  28:src/semaphore.cpp ****         delete temp;
 435              		.loc 1 28 30 is_stmt 0
 436 0258 83378500 		ld	a5,8(a0)
  28:src/semaphore.cpp ****         delete temp;
 437              		.loc 1 28 18
 438 025c 23B4F400 		sd	a5,8(s1)
  29:src/semaphore.cpp ****         if(!sem->head) sem->tail=sem->head;
 439              		.loc 1 29 9 is_stmt 1
  29:src/semaphore.cpp ****         if(!sem->head) sem->tail=sem->head;
 440              		.loc 1 29 16 is_stmt 0
 441 0260 97000000 		call	_ZN5BlockdlEPv
 441      E7800000 
 442              	.LVL35:
  30:src/semaphore.cpp ****         thread->done=0;
 443              		.loc 1 30 9 is_stmt 1
  30:src/semaphore.cpp ****         thread->done=0;
 444              		.loc 1 30 18 is_stmt 0
 445 0268 83B78400 		ld	a5,8(s1)
  30:src/semaphore.cpp ****         thread->done=0;
 446              		.loc 1 30 9
 447 026c 63860702 		beqz	a5,.L31
 448              	.L25:
  31:src/semaphore.cpp ****         Scheduler::put(thread);
 449              		.loc 1 31 9 is_stmt 1
  31:src/semaphore.cpp ****         Scheduler::put(thread);
 450              		.loc 1 31 21 is_stmt 0
 451 0270 230C0902 		sb	zero,56(s2)
  32:src/semaphore.cpp ****     }
 452              		.loc 1 32 9 is_stmt 1
  32:src/semaphore.cpp ****     }
GAS LISTING /tmp/ccG6FQPH.s 			page 12


 453              		.loc 1 32 23 is_stmt 0
 454 0274 13050900 		mv	a0,s2
 455 0278 97000000 		call	_ZN9Scheduler3putEP3TCB@plt
 455      E7800000 
 456              	.LVL36:
 457              	.L23:
 458              	.LBE20:
 459              	.LBE22:
  34:src/semaphore.cpp **** 
 460              		.loc 1 34 1
 461 0280 83308101 		ld	ra,24(sp)
 462              		.cfi_remember_state
 463              		.cfi_restore 1
 464 0284 03340101 		ld	s0,16(sp)
 465              		.cfi_restore 8
 466              		.cfi_def_cfa 2, 32
 467 0288 83348100 		ld	s1,8(sp)
 468              		.cfi_restore 9
 469              	.LVL37:
 470 028c 03390100 		ld	s2,0(sp)
 471              		.cfi_restore 18
 472 0290 13010102 		addi	sp,sp,32
 473              		.cfi_def_cfa_offset 0
 474 0294 67800000 		jr	ra
 475              	.LVL38:
 476              	.L31:
 477              		.cfi_restore_state
 478              	.LBB23:
 479              	.LBB21:
  30:src/semaphore.cpp ****         thread->done=0;
 480              		.loc 1 30 24 is_stmt 1 discriminator 1
  30:src/semaphore.cpp ****         thread->done=0;
 481              		.loc 1 30 33 is_stmt 0 discriminator 1
 482 0298 23B8F400 		sd	a5,16(s1)
 483 029c 6FF05FFD 		j	.L25
 484              	.LBE21:
 485              	.LBE23:
 486              		.cfi_endproc
 487              	.LFE15:
 489              	.Letext0:
 490              		.file 4 "src/../h/../h/../lib/hw.h"
 491              		.file 5 "src/../h/../h/MemoryAllocator.h"
 492              		.file 6 "src/../h/scheduler.hpp"
 493              		.file 7 "src/../h/syscall_c.hpp"
GAS LISTING /tmp/ccG6FQPH.s 			page 13

