GAS LISTING /tmp/ccsVeCnL.s 			page 1


   1              		.file	"TCB.cpp"
   2              		.option pic
   3              		.option norelax
   4              		.text
   5              	.Ltext0:
   6              		.align	2
   7              		.globl	_ZN3TCB13threadWrapperEv
   9              	_ZN3TCB13threadWrapperEv:
  10              	.LFB53:
  11              		.file 1 "src/TCB.cpp"
   1:src/TCB.cpp   **** 
   2:src/TCB.cpp   **** #include "../h/riscv.hpp"
   3:src/TCB.cpp   **** 
   4:src/TCB.cpp   **** 
   5:src/TCB.cpp   **** TCB *TCB::running = nullptr;
   6:src/TCB.cpp   **** 
   7:src/TCB.cpp   **** void TCB::yield(TCB::Context *old_context, TCB::Context *running_context) {
   8:src/TCB.cpp   ****     __asm__ volatile("sd ra, 0*8(a0)");
   9:src/TCB.cpp   ****     __asm__ volatile("sd sp, 1*8(a0)");
  10:src/TCB.cpp   ****     __asm__ volatile("ld ra, 0*8(a1)");
  11:src/TCB.cpp   ****     __asm__ volatile("ld sp, 1*8(a1)");
  12:src/TCB.cpp   **** }
  13:src/TCB.cpp   **** 
  14:src/TCB.cpp   **** TCB::TCB(Body b, char *s, void *a, uint64 ts) {
  15:src/TCB.cpp   ****     this->body=b;
  16:src/TCB.cpp   ****     this->stack=s;
  17:src/TCB.cpp   ****     this->arg=a;
  18:src/TCB.cpp   ****     this->time_slice=ts;
  19:src/TCB.cpp   ****     this->context.ra = (uint64)threadWrapper;
  20:src/TCB.cpp   ****     this->context.sp = (uint64)s;
  21:src/TCB.cpp   ****     this->done = false;
  22:src/TCB.cpp   ****     this->semaphore=Semafor::create(0);
  23:src/TCB.cpp   **** }
  24:src/TCB.cpp   **** 
  25:src/TCB.cpp   **** TCB* TCB::create(Body b,char* s, void* a) {
  26:src/TCB.cpp   ****     if(running==nullptr) {
  27:src/TCB.cpp   ****         running=new TCB(nullptr, nullptr, nullptr, DEFAULT_TIME_SLICE);
  28:src/TCB.cpp   ****     }
  29:src/TCB.cpp   ****     return new TCB(b, s, a, DEFAULT_TIME_SLICE);
  30:src/TCB.cpp   **** }
  31:src/TCB.cpp   **** 
  32:src/TCB.cpp   **** void TCB::dispatch() {
  33:src/TCB.cpp   ****     TCB* old=running;
  34:src/TCB.cpp   ****     if(!running->done){
  35:src/TCB.cpp   ****         Scheduler::put(running);
  36:src/TCB.cpp   ****     }
  37:src/TCB.cpp   ****     running=Scheduler::get();
  38:src/TCB.cpp   **** 
  39:src/TCB.cpp   **** 
  40:src/TCB.cpp   ****     yield(&old->context, &running->context);
  41:src/TCB.cpp   **** }
  42:src/TCB.cpp   **** 
  43:src/TCB.cpp   **** int TCB::exit() {
  44:src/TCB.cpp   ****     if(running==nullptr) return -1;
  45:src/TCB.cpp   ****     running->done = true;
  46:src/TCB.cpp   ****     Semafor::signal(running->semaphore);
  47:src/TCB.cpp   ****     dispatch();
GAS LISTING /tmp/ccsVeCnL.s 			page 2


  48:src/TCB.cpp   ****     return 0;
  49:src/TCB.cpp   **** }
  50:src/TCB.cpp   **** 
  51:src/TCB.cpp   **** void TCB::join(TCB *thread) {
  52:src/TCB.cpp   ****     if (!thread || thread->done) return;
  53:src/TCB.cpp   ****     Semafor::wait(thread->semaphore);
  54:src/TCB.cpp   **** }
  55:src/TCB.cpp   **** 
  56:src/TCB.cpp   **** void TCB::idleThread(void* arg) {
  57:src/TCB.cpp   ****     while (true) {
  58:src/TCB.cpp   ****         thread_dispatch();
  59:src/TCB.cpp   ****     }
  60:src/TCB.cpp   **** }
  61:src/TCB.cpp   **** 
  62:src/TCB.cpp   **** void TCB::threadWrapper()
  63:src/TCB.cpp   **** {
  12              		.loc 1 63 1
  13              		.cfi_startproc
  14 0000 130101FF 		addi	sp,sp,-16
  15              		.cfi_def_cfa_offset 16
  16 0004 23341100 		sd	ra,8(sp)
  17 0008 23308100 		sd	s0,0(sp)
  18              		.cfi_offset 1, -8
  19              		.cfi_offset 8, -16
  20 000c 13040101 		addi	s0,sp,16
  21              		.cfi_def_cfa 8, 0
  64:src/TCB.cpp   ****     Riscv::popSppSpie();
  22              		.loc 1 64 5
  23              		.loc 1 64 22 is_stmt 0
  24 0010 97000000 		call	_ZN5Riscv10popSppSpieEv@plt
  24      E7800000 
  25              	.LVL0:
  65:src/TCB.cpp   ****     running->body(running->arg);
  26              		.loc 1 65 5 is_stmt 1
  27              		.loc 1 65 14 is_stmt 0
  28 0018 97070000 		ld	a5,.LANCHOR0
  28      83B70700 
  29 0020 03B70703 		ld	a4,48(a5)
  30              		.loc 1 65 18
  31 0024 03B58702 		ld	a0,40(a5)
  32 0028 E7000700 		jalr	a4
  33              	.LVL1:
  66:src/TCB.cpp   ****     thread_exit();
  34              		.loc 1 66 5 is_stmt 1
  35              		.loc 1 66 16 is_stmt 0
  36 002c 97000000 		call	_Z11thread_exitv@plt
  36      E7800000 
  37              	.LVL2:
  67:src/TCB.cpp   **** }
  38              		.loc 1 67 1
  39 0034 83308100 		ld	ra,8(sp)
  40              		.cfi_restore 1
  41 0038 03340100 		ld	s0,0(sp)
  42              		.cfi_restore 8
  43              		.cfi_def_cfa 2, 16
  44 003c 13010101 		addi	sp,sp,16
  45              		.cfi_def_cfa_offset 0
GAS LISTING /tmp/ccsVeCnL.s 			page 3


  46 0040 67800000 		jr	ra
  47              		.cfi_endproc
  48              	.LFE53:
  50              		.align	2
  51              		.globl	_ZN3TCB5yieldEPNS_7ContextES1_
  53              	_ZN3TCB5yieldEPNS_7ContextES1_:
  54              	.LFB44:
   7:src/TCB.cpp   ****     __asm__ volatile("sd ra, 0*8(a0)");
  55              		.loc 1 7 75 is_stmt 1
  56              		.cfi_startproc
  57              	.LVL3:
  58 0044 130101FF 		addi	sp,sp,-16
  59              		.cfi_def_cfa_offset 16
  60 0048 23348100 		sd	s0,8(sp)
  61              		.cfi_offset 8, -8
  62 004c 13040101 		addi	s0,sp,16
  63              		.cfi_def_cfa 8, 0
   8:src/TCB.cpp   ****     __asm__ volatile("sd sp, 1*8(a0)");
  64              		.loc 1 8 5
   8:src/TCB.cpp   ****     __asm__ volatile("sd sp, 1*8(a0)");
  65              		.loc 1 8 39 is_stmt 0
  66              	#APP
  67              	# 8 "src/TCB.cpp" 1
   9:src/TCB.cpp   ****     __asm__ volatile("ld ra, 0*8(a1)");
  68              		sd ra, 0*8(a0)
  69              	# 0 "" 2
  70              		.loc 1 9 5 is_stmt 1
   9:src/TCB.cpp   ****     __asm__ volatile("ld ra, 0*8(a1)");
  71              		.loc 1 9 39 is_stmt 0
  72              	# 9 "src/TCB.cpp" 1
  10:src/TCB.cpp   ****     __asm__ volatile("ld sp, 1*8(a1)");
  73              		sd sp, 1*8(a0)
  74              	# 0 "" 2
  75              		.loc 1 10 5 is_stmt 1
  10:src/TCB.cpp   ****     __asm__ volatile("ld sp, 1*8(a1)");
  76              		.loc 1 10 39 is_stmt 0
  77              	# 10 "src/TCB.cpp" 1
  11:src/TCB.cpp   **** }
  78              		ld ra, 0*8(a1)
  79              	# 0 "" 2
  80              		.loc 1 11 5 is_stmt 1
  11:src/TCB.cpp   **** }
  81              		.loc 1 11 39 is_stmt 0
  82              	# 11 "src/TCB.cpp" 1
  12:src/TCB.cpp   **** 
  83              		ld sp, 1*8(a1)
  84              	# 0 "" 2
  85              		.loc 1 12 1
  86              	#NO_APP
  87 0060 03348100 		ld	s0,8(sp)
  88              		.cfi_restore 8
  89              		.cfi_def_cfa 2, 16
  90 0064 13010101 		addi	sp,sp,16
  91              		.cfi_def_cfa_offset 0
  92 0068 67800000 		jr	ra
  93              		.cfi_endproc
  94              	.LFE44:
GAS LISTING /tmp/ccsVeCnL.s 			page 4


  96              		.align	2
  97              		.globl	_ZN3TCBC2EPFvPvEPcS0_m
  99              	_ZN3TCBC2EPFvPvEPcS0_m:
 100              	.LFB46:
  14:src/TCB.cpp   ****     this->body=b;
 101              		.loc 1 14 1 is_stmt 1
 102              		.cfi_startproc
 103              	.LVL4:
 104 006c 130101FE 		addi	sp,sp,-32
 105              		.cfi_def_cfa_offset 32
 106 0070 233C1100 		sd	ra,24(sp)
 107 0074 23388100 		sd	s0,16(sp)
 108 0078 23349100 		sd	s1,8(sp)
 109              		.cfi_offset 1, -8
 110              		.cfi_offset 8, -16
 111              		.cfi_offset 9, -24
 112 007c 13040102 		addi	s0,sp,32
 113              		.cfi_def_cfa 8, 0
 114 0080 93040500 		mv	s1,a0
 115              	.LBB2:
  15:src/TCB.cpp   ****     this->stack=s;
 116              		.loc 1 15 5
  15:src/TCB.cpp   ****     this->stack=s;
 117              		.loc 1 15 15 is_stmt 0
 118 0084 2338B502 		sd	a1,48(a0)
  16:src/TCB.cpp   ****     this->arg=a;
 119              		.loc 1 16 5 is_stmt 1
  16:src/TCB.cpp   ****     this->arg=a;
 120              		.loc 1 16 16 is_stmt 0
 121 0088 2330C502 		sd	a2,32(a0)
  17:src/TCB.cpp   ****     this->time_slice=ts;
 122              		.loc 1 17 5 is_stmt 1
  17:src/TCB.cpp   ****     this->time_slice=ts;
 123              		.loc 1 17 14 is_stmt 0
 124 008c 2334D502 		sd	a3,40(a0)
  18:src/TCB.cpp   ****     this->context.ra = (uint64)threadWrapper;
 125              		.loc 1 18 5 is_stmt 1
  18:src/TCB.cpp   ****     this->context.ra = (uint64)threadWrapper;
 126              		.loc 1 18 21 is_stmt 0
 127 0090 2338E500 		sd	a4,16(a0)
  19:src/TCB.cpp   ****     this->context.sp = (uint64)s;
 128              		.loc 1 19 5 is_stmt 1
  19:src/TCB.cpp   ****     this->context.sp = (uint64)s;
 129              		.loc 1 19 22 is_stmt 0
 130 0094 97070000 		lla	a5,_ZN3TCB13threadWrapperEv
 130      93870700 
 131 009c 2330F500 		sd	a5,0(a0)
  20:src/TCB.cpp   ****     this->done = false;
 132              		.loc 1 20 5 is_stmt 1
  20:src/TCB.cpp   ****     this->done = false;
 133              		.loc 1 20 22 is_stmt 0
 134 00a0 2334C500 		sd	a2,8(a0)
  21:src/TCB.cpp   ****     this->semaphore=Semafor::create(0);
 135              		.loc 1 21 5 is_stmt 1
  21:src/TCB.cpp   ****     this->semaphore=Semafor::create(0);
 136              		.loc 1 21 16 is_stmt 0
 137 00a4 230C0502 		sb	zero,56(a0)
GAS LISTING /tmp/ccsVeCnL.s 			page 5


  22:src/TCB.cpp   **** }
 138              		.loc 1 22 5 is_stmt 1
  22:src/TCB.cpp   **** }
 139              		.loc 1 22 36 is_stmt 0
 140 00a8 13050000 		li	a0,0
 141              	.LVL5:
 142 00ac 97000000 		call	_ZN7Semafor6createEi@plt
 142      E7800000 
 143              	.LVL6:
  22:src/TCB.cpp   **** }
 144              		.loc 1 22 20
 145 00b4 23BCA400 		sd	a0,24(s1)
 146              	.LBE2:
  23:src/TCB.cpp   **** 
 147              		.loc 1 23 1
 148 00b8 83308101 		ld	ra,24(sp)
 149              		.cfi_restore 1
 150 00bc 03340101 		ld	s0,16(sp)
 151              		.cfi_restore 8
 152              		.cfi_def_cfa 2, 32
 153 00c0 83348100 		ld	s1,8(sp)
 154              		.cfi_restore 9
 155              	.LVL7:
 156 00c4 13010102 		addi	sp,sp,32
 157              		.cfi_def_cfa_offset 0
 158 00c8 67800000 		jr	ra
 159              		.cfi_endproc
 160              	.LFE46:
 162              		.globl	_ZN3TCBC1EPFvPvEPcS0_m
 163              		.set	_ZN3TCBC1EPFvPvEPcS0_m,_ZN3TCBC2EPFvPvEPcS0_m
 164              		.align	2
 165              		.globl	_ZN3TCB8dispatchEv
 167              	_ZN3TCB8dispatchEv:
 168              	.LFB49:
  32:src/TCB.cpp   ****     TCB* old=running;
 169              		.loc 1 32 22 is_stmt 1
 170              		.cfi_startproc
 171 00cc 130101FE 		addi	sp,sp,-32
 172              		.cfi_def_cfa_offset 32
 173 00d0 233C1100 		sd	ra,24(sp)
 174 00d4 23388100 		sd	s0,16(sp)
 175 00d8 23349100 		sd	s1,8(sp)
 176              		.cfi_offset 1, -8
 177              		.cfi_offset 8, -16
 178              		.cfi_offset 9, -24
 179 00dc 13040102 		addi	s0,sp,32
 180              		.cfi_def_cfa 8, 0
  33:src/TCB.cpp   ****     if(!running->done){
 181              		.loc 1 33 5
  33:src/TCB.cpp   ****     if(!running->done){
 182              		.loc 1 33 10 is_stmt 0
 183 00e0 97040000 		ld	s1,.LANCHOR0
 183      83B40400 
 184              	.LVL8:
  34:src/TCB.cpp   ****         Scheduler::put(running);
 185              		.loc 1 34 5 is_stmt 1
  34:src/TCB.cpp   ****         Scheduler::put(running);
GAS LISTING /tmp/ccsVeCnL.s 			page 6


 186              		.loc 1 34 18 is_stmt 0
 187 00e8 83C78403 		lbu	a5,56(s1)
  34:src/TCB.cpp   ****         Scheduler::put(running);
 188              		.loc 1 34 5
 189 00ec 638C0702 		beqz	a5,.L10
 190              	.L8:
  37:src/TCB.cpp   **** 
 191              		.loc 1 37 5 is_stmt 1
  37:src/TCB.cpp   **** 
 192              		.loc 1 37 27 is_stmt 0
 193 00f0 97000000 		call	_ZN9Scheduler3getEv@plt
 193      E7800000 
 194              	.LVL9:
 195 00f8 93050500 		mv	a1,a0
  37:src/TCB.cpp   **** 
 196              		.loc 1 37 12
 197 00fc 97070000 		sd	a0,.LANCHOR0,a5
 197      23B0A700 
  40:src/TCB.cpp   **** }
 198              		.loc 1 40 5 is_stmt 1
  40:src/TCB.cpp   **** }
 199              		.loc 1 40 10 is_stmt 0
 200 0104 13850400 		mv	a0,s1
 201 0108 97000000 		call	_ZN3TCB5yieldEPNS_7ContextES1_
 201      E7800000 
 202              	.LVL10:
  41:src/TCB.cpp   **** 
 203              		.loc 1 41 1
 204 0110 83308101 		ld	ra,24(sp)
 205              		.cfi_remember_state
 206              		.cfi_restore 1
 207 0114 03340101 		ld	s0,16(sp)
 208              		.cfi_restore 8
 209              		.cfi_def_cfa 2, 32
 210 0118 83348100 		ld	s1,8(sp)
 211              		.cfi_restore 9
 212              	.LVL11:
 213 011c 13010102 		addi	sp,sp,32
 214              		.cfi_def_cfa_offset 0
 215 0120 67800000 		jr	ra
 216              	.LVL12:
 217              	.L10:
 218              		.cfi_restore_state
  35:src/TCB.cpp   ****     }
 219              		.loc 1 35 9 is_stmt 1
  35:src/TCB.cpp   ****     }
 220              		.loc 1 35 23 is_stmt 0
 221 0124 13850400 		mv	a0,s1
 222 0128 97000000 		call	_ZN9Scheduler3putEP3TCB@plt
 222      E7800000 
 223              	.LVL13:
 224 0130 6FF01FFC 		j	.L8
 225              		.cfi_endproc
 226              	.LFE49:
 228              		.align	2
 229              		.globl	_ZN3TCB4exitEv
 231              	_ZN3TCB4exitEv:
GAS LISTING /tmp/ccsVeCnL.s 			page 7


 232              	.LFB50:
  43:src/TCB.cpp   ****     if(running==nullptr) return -1;
 233              		.loc 1 43 17 is_stmt 1
 234              		.cfi_startproc
  44:src/TCB.cpp   ****     running->done = true;
 235              		.loc 1 44 5
  44:src/TCB.cpp   ****     running->done = true;
 236              		.loc 1 44 15 is_stmt 0
 237 0134 97070000 		ld	a5,.LANCHOR0
 237      83B70700 
  44:src/TCB.cpp   ****     running->done = true;
 238              		.loc 1 44 5
 239 013c 63820704 		beqz	a5,.L13
  43:src/TCB.cpp   ****     if(running==nullptr) return -1;
 240              		.loc 1 43 17
 241 0140 130101FF 		addi	sp,sp,-16
 242              		.cfi_def_cfa_offset 16
 243 0144 23341100 		sd	ra,8(sp)
 244 0148 23308100 		sd	s0,0(sp)
 245              		.cfi_offset 1, -8
 246              		.cfi_offset 8, -16
 247 014c 13040101 		addi	s0,sp,16
 248              		.cfi_def_cfa 8, 0
  45:src/TCB.cpp   ****     Semafor::signal(running->semaphore);
 249              		.loc 1 45 5 is_stmt 1
  45:src/TCB.cpp   ****     Semafor::signal(running->semaphore);
 250              		.loc 1 45 19 is_stmt 0
 251 0150 13071000 		li	a4,1
 252 0154 238CE702 		sb	a4,56(a5)
  46:src/TCB.cpp   ****     dispatch();
 253              		.loc 1 46 5 is_stmt 1
  46:src/TCB.cpp   ****     dispatch();
 254              		.loc 1 46 20 is_stmt 0
 255 0158 03B58701 		ld	a0,24(a5)
 256 015c 97000000 		call	_ZN7Semafor6signalEPS_@plt
 256      E7800000 
 257              	.LVL14:
  47:src/TCB.cpp   ****     return 0;
 258              		.loc 1 47 5 is_stmt 1
  47:src/TCB.cpp   ****     return 0;
 259              		.loc 1 47 13 is_stmt 0
 260 0164 97000000 		call	_ZN3TCB8dispatchEv
 260      E7800000 
 261              	.LVL15:
  48:src/TCB.cpp   **** }
 262              		.loc 1 48 5 is_stmt 1
  48:src/TCB.cpp   **** }
 263              		.loc 1 48 12 is_stmt 0
 264 016c 13050000 		li	a0,0
  49:src/TCB.cpp   **** 
 265              		.loc 1 49 1
 266 0170 83308100 		ld	ra,8(sp)
 267              		.cfi_restore 1
 268 0174 03340100 		ld	s0,0(sp)
 269              		.cfi_restore 8
 270              		.cfi_def_cfa 2, 16
 271 0178 13010101 		addi	sp,sp,16
GAS LISTING /tmp/ccsVeCnL.s 			page 8


 272              		.cfi_def_cfa_offset 0
 273 017c 67800000 		jr	ra
 274              	.L13:
  44:src/TCB.cpp   ****     running->done = true;
 275              		.loc 1 44 34
 276 0180 1305F0FF 		li	a0,-1
  49:src/TCB.cpp   **** 
 277              		.loc 1 49 1
 278 0184 67800000 		ret
 279              		.cfi_endproc
 280              	.LFE50:
 282              		.align	2
 283              		.globl	_ZN3TCB4joinEPS_
 285              	_ZN3TCB4joinEPS_:
 286              	.LFB51:
  51:src/TCB.cpp   ****     if (!thread || thread->done) return;
 287              		.loc 1 51 29 is_stmt 1
 288              		.cfi_startproc
 289              	.LVL16:
  52:src/TCB.cpp   ****     Semafor::wait(thread->semaphore);
 290              		.loc 1 52 5
 291 0188 63060500 		beqz	a0,.L21
  52:src/TCB.cpp   ****     Semafor::wait(thread->semaphore);
 292              		.loc 1 52 28 is_stmt 0 discriminator 2
 293 018c 83478503 		lbu	a5,56(a0)
  52:src/TCB.cpp   ****     Semafor::wait(thread->semaphore);
 294              		.loc 1 52 17 discriminator 2
 295 0190 63840700 		beqz	a5,.L24
 296              	.L21:
 297 0194 67800000 		ret
 298              	.L24:
  51:src/TCB.cpp   ****     if (!thread || thread->done) return;
 299              		.loc 1 51 29
 300 0198 130101FF 		addi	sp,sp,-16
 301              		.cfi_def_cfa_offset 16
 302 019c 23341100 		sd	ra,8(sp)
 303 01a0 23308100 		sd	s0,0(sp)
 304              		.cfi_offset 1, -8
 305              		.cfi_offset 8, -16
 306 01a4 13040101 		addi	s0,sp,16
 307              		.cfi_def_cfa 8, 0
  53:src/TCB.cpp   **** }
 308              		.loc 1 53 5 is_stmt 1
  53:src/TCB.cpp   **** }
 309              		.loc 1 53 18 is_stmt 0
 310 01a8 03358501 		ld	a0,24(a0)
 311              	.LVL17:
 312 01ac 97000000 		call	_ZN7Semafor4waitEPS_@plt
 312      E7800000 
 313              	.LVL18:
  54:src/TCB.cpp   **** 
 314              		.loc 1 54 1
 315 01b4 83308100 		ld	ra,8(sp)
 316              		.cfi_restore 1
 317 01b8 03340100 		ld	s0,0(sp)
 318              		.cfi_restore 8
 319              		.cfi_def_cfa 2, 16
GAS LISTING /tmp/ccsVeCnL.s 			page 9


 320 01bc 13010101 		addi	sp,sp,16
 321              		.cfi_def_cfa_offset 0
 322 01c0 67800000 		jr	ra
 323              		.cfi_endproc
 324              	.LFE51:
 326              		.align	2
 327              		.globl	_ZN3TCB10idleThreadEPv
 329              	_ZN3TCB10idleThreadEPv:
 330              	.LFB52:
  56:src/TCB.cpp   ****     while (true) {
 331              		.loc 1 56 33 is_stmt 1
 332              		.cfi_startproc
 333              	.LVL19:
 334 01c4 130101FF 		addi	sp,sp,-16
 335              		.cfi_def_cfa_offset 16
 336 01c8 23341100 		sd	ra,8(sp)
 337 01cc 23308100 		sd	s0,0(sp)
 338              		.cfi_offset 1, -8
 339              		.cfi_offset 8, -16
 340 01d0 13040101 		addi	s0,sp,16
 341              		.cfi_def_cfa 8, 0
 342              	.LVL20:
 343              	.L26:
  57:src/TCB.cpp   ****         thread_dispatch();
 344              		.loc 1 57 5 discriminator 1
  58:src/TCB.cpp   ****     }
 345              		.loc 1 58 9 discriminator 1
  58:src/TCB.cpp   ****     }
 346              		.loc 1 58 24 is_stmt 0 discriminator 1
 347 01d4 97000000 		call	_Z15thread_dispatchv@plt
 347      E7800000 
 348              	.LVL21:
  57:src/TCB.cpp   ****         thread_dispatch();
 349              		.loc 1 57 5 is_stmt 1 discriminator 1
 350 01dc 6FF09FFF 		j	.L26
 351              		.cfi_endproc
 352              	.LFE52:
 354              		.align	2
 355              		.globl	_ZN3TCBnwEm
 357              	_ZN3TCBnwEm:
 358              	.LFB54:
  68:src/TCB.cpp   **** 
  69:src/TCB.cpp   **** void *TCB::operator new(size_t size) {
 359              		.loc 1 69 38
 360              		.cfi_startproc
 361              	.LVL22:
 362 01e0 130101FE 		addi	sp,sp,-32
 363              		.cfi_def_cfa_offset 32
 364 01e4 233C1100 		sd	ra,24(sp)
 365 01e8 23388100 		sd	s0,16(sp)
 366 01ec 23349100 		sd	s1,8(sp)
 367              		.cfi_offset 1, -8
 368              		.cfi_offset 8, -16
 369              		.cfi_offset 9, -24
 370 01f0 13040102 		addi	s0,sp,32
 371              		.cfi_def_cfa 8, 0
 372 01f4 93040500 		mv	s1,a0
GAS LISTING /tmp/ccsVeCnL.s 			page 10


  70:src/TCB.cpp   ****     return MemoryAllocator::getInstance().mem_alloc(size);
 373              		.loc 1 70 5
 374              		.loc 1 70 41 is_stmt 0
 375 01f8 97000000 		call	_ZN15MemoryAllocator11getInstanceEv@plt
 375      E7800000 
 376              	.LVL23:
 377              		.loc 1 70 52
 378 0200 93850400 		mv	a1,s1
 379 0204 97000000 		call	_ZN15MemoryAllocator9mem_allocEm@plt
 379      E7800000 
 380              	.LVL24:
  71:src/TCB.cpp   **** }
 381              		.loc 1 71 1
 382 020c 83308101 		ld	ra,24(sp)
 383              		.cfi_restore 1
 384 0210 03340101 		ld	s0,16(sp)
 385              		.cfi_restore 8
 386              		.cfi_def_cfa 2, 32
 387 0214 83348100 		ld	s1,8(sp)
 388              		.cfi_restore 9
 389              	.LVL25:
 390 0218 13010102 		addi	sp,sp,32
 391              		.cfi_def_cfa_offset 0
 392 021c 67800000 		jr	ra
 393              		.cfi_endproc
 394              	.LFE54:
 396              		.align	2
 397              		.globl	_ZN3TCBdlEPv
 399              	_ZN3TCBdlEPv:
 400              	.LFB55:
  72:src/TCB.cpp   **** 
  73:src/TCB.cpp   **** void TCB::operator delete(void *address) {
 401              		.loc 1 73 42 is_stmt 1
 402              		.cfi_startproc
 403              	.LVL26:
 404 0220 130101FE 		addi	sp,sp,-32
 405              		.cfi_def_cfa_offset 32
 406 0224 233C1100 		sd	ra,24(sp)
 407 0228 23388100 		sd	s0,16(sp)
 408 022c 23349100 		sd	s1,8(sp)
 409              		.cfi_offset 1, -8
 410              		.cfi_offset 8, -16
 411              		.cfi_offset 9, -24
 412 0230 13040102 		addi	s0,sp,32
 413              		.cfi_def_cfa 8, 0
 414 0234 93040500 		mv	s1,a0
  74:src/TCB.cpp   ****     MemoryAllocator::getInstance().mem_free(address);
 415              		.loc 1 74 5
 416              		.loc 1 74 34 is_stmt 0
 417 0238 97000000 		call	_ZN15MemoryAllocator11getInstanceEv@plt
 417      E7800000 
 418              	.LVL27:
 419              		.loc 1 74 44
 420 0240 93850400 		mv	a1,s1
 421 0244 97000000 		call	_ZN15MemoryAllocator8mem_freeEPv@plt
 421      E7800000 
 422              	.LVL28:
GAS LISTING /tmp/ccsVeCnL.s 			page 11


  75:src/TCB.cpp   **** }
 423              		.loc 1 75 1
 424 024c 83308101 		ld	ra,24(sp)
 425              		.cfi_restore 1
 426 0250 03340101 		ld	s0,16(sp)
 427              		.cfi_restore 8
 428              		.cfi_def_cfa 2, 32
 429 0254 83348100 		ld	s1,8(sp)
 430              		.cfi_restore 9
 431              	.LVL29:
 432 0258 13010102 		addi	sp,sp,32
 433              		.cfi_def_cfa_offset 0
 434 025c 67800000 		jr	ra
 435              		.cfi_endproc
 436              	.LFE55:
 438              		.align	2
 439              		.globl	_ZN3TCB6createEPFvPvEPcS0_
 441              	_ZN3TCB6createEPFvPvEPcS0_:
 442              	.LFB48:
  25:src/TCB.cpp   ****     if(running==nullptr) {
 443              		.loc 1 25 43 is_stmt 1
 444              		.cfi_startproc
 445              		.cfi_personality 0x9b,DW.ref.__gxx_personality_v0
 446              		.cfi_lsda 0x1b,.LLSDA48
 447              	.LVL30:
 448 0260 130101FD 		addi	sp,sp,-48
 449              		.cfi_def_cfa_offset 48
 450 0264 23341102 		sd	ra,40(sp)
 451 0268 23308102 		sd	s0,32(sp)
 452 026c 233C9100 		sd	s1,24(sp)
 453 0270 23382101 		sd	s2,16(sp)
 454 0274 23343101 		sd	s3,8(sp)
 455 0278 23304101 		sd	s4,0(sp)
 456              		.cfi_offset 1, -8
 457              		.cfi_offset 8, -16
 458              		.cfi_offset 9, -24
 459              		.cfi_offset 18, -32
 460              		.cfi_offset 19, -40
 461              		.cfi_offset 20, -48
 462 027c 13040103 		addi	s0,sp,48
 463              		.cfi_def_cfa 8, 0
 464 0280 13090500 		mv	s2,a0
 465 0284 93890500 		mv	s3,a1
 466 0288 130A0600 		mv	s4,a2
  26:src/TCB.cpp   ****         running=new TCB(nullptr, nullptr, nullptr, DEFAULT_TIME_SLICE);
 467              		.loc 1 26 5
  26:src/TCB.cpp   ****         running=new TCB(nullptr, nullptr, nullptr, DEFAULT_TIME_SLICE);
 468              		.loc 1 26 15 is_stmt 0
 469 028c 97070000 		ld	a5,.LANCHOR0
 469      83B70700 
  26:src/TCB.cpp   ****         running=new TCB(nullptr, nullptr, nullptr, DEFAULT_TIME_SLICE);
 470              		.loc 1 26 5
 471 0294 63880702 		beqz	a5,.L40
 472              	.LVL31:
 473              	.L33:
  29:src/TCB.cpp   **** }
 474              		.loc 1 29 5 is_stmt 1
GAS LISTING /tmp/ccsVeCnL.s 			page 12


  29:src/TCB.cpp   **** }
 475              		.loc 1 29 47 is_stmt 0
 476 0298 13050004 		li	a0,64
 477              	.LEHB0:
 478 029c 97000000 		call	_ZN3TCBnwEm
 478      E7800000 
 479              	.LVL32:
 480              	.LEHE0:
 481 02a4 93040500 		mv	s1,a0
 482 02a8 13072000 		li	a4,2
 483 02ac 93060A00 		mv	a3,s4
 484 02b0 13860900 		mv	a2,s3
 485 02b4 93050900 		mv	a1,s2
 486              	.LEHB1:
 487 02b8 97000000 		call	_ZN3TCBC1EPFvPvEPcS0_m
 487      E7800000 
 488              	.LVL33:
 489              	.LEHE1:
 490 02c0 6F000007 		j	.L41
 491              	.LVL34:
 492              	.L40:
  27:src/TCB.cpp   ****     }
 493              		.loc 1 27 9 is_stmt 1
  27:src/TCB.cpp   ****     }
 494              		.loc 1 27 70 is_stmt 0
 495 02c4 13050004 		li	a0,64
 496              	.LVL35:
 497              	.LEHB2:
 498 02c8 97000000 		call	_ZN3TCBnwEm
 498      E7800000 
 499              	.LVL36:
 500              	.LEHE2:
 501 02d0 93040500 		mv	s1,a0
 502 02d4 13072000 		li	a4,2
 503 02d8 93060000 		li	a3,0
 504 02dc 13060000 		li	a2,0
 505 02e0 93050000 		li	a1,0
 506              	.LEHB3:
 507 02e4 97000000 		call	_ZN3TCBC1EPFvPvEPcS0_m
 507      E7800000 
 508              	.LVL37:
 509              	.LEHE3:
  27:src/TCB.cpp   ****     }
 510              		.loc 1 27 16 discriminator 2
 511 02ec 97070000 		sd	s1,.LANCHOR0,a5
 511      23B09700 
 512 02f4 6FF05FFA 		j	.L33
 513              	.L36:
 514 02f8 13090500 		mv	s2,a0
 515              	.LVL38:
  27:src/TCB.cpp   ****     }
 516              		.loc 1 27 70
 517 02fc 13850400 		mv	a0,s1
 518 0300 97000000 		call	_ZN3TCBdlEPv
 518      E7800000 
 519              	.LVL39:
 520 0308 13050900 		mv	a0,s2
GAS LISTING /tmp/ccsVeCnL.s 			page 13


 521              	.LEHB4:
 522 030c 97000000 		call	_Unwind_Resume@plt
 522      E7800000 
 523              	.LVL40:
 524              	.LEHE4:
 525              	.L37:
 526 0314 13090500 		mv	s2,a0
 527              	.LVL41:
  29:src/TCB.cpp   **** }
 528              		.loc 1 29 47
 529 0318 13850400 		mv	a0,s1
 530 031c 97000000 		call	_ZN3TCBdlEPv
 530      E7800000 
 531              	.LVL42:
 532 0324 13050900 		mv	a0,s2
 533              	.LEHB5:
 534 0328 97000000 		call	_Unwind_Resume@plt
 534      E7800000 
 535              	.LVL43:
 536              	.LEHE5:
 537              	.L41:
  30:src/TCB.cpp   **** 
 538              		.loc 1 30 1
 539 0330 13850400 		mv	a0,s1
 540 0334 83308102 		ld	ra,40(sp)
 541              		.cfi_restore 1
 542 0338 03340102 		ld	s0,32(sp)
 543              		.cfi_restore 8
 544              		.cfi_def_cfa 2, 48
 545 033c 83348101 		ld	s1,24(sp)
 546              		.cfi_restore 9
 547 0340 03390101 		ld	s2,16(sp)
 548              		.cfi_restore 18
 549              	.LVL44:
 550 0344 83398100 		ld	s3,8(sp)
 551              		.cfi_restore 19
 552              	.LVL45:
 553 0348 033A0100 		ld	s4,0(sp)
 554              		.cfi_restore 20
 555              	.LVL46:
 556 034c 13010103 		addi	sp,sp,48
 557              		.cfi_def_cfa_offset 0
 558 0350 67800000 		jr	ra
 559              		.cfi_endproc
 560              	.LFE48:
 561              		.globl	__gxx_personality_v0
 562              		.section	.gcc_except_table,"a",@progbits
 563              	.LLSDA48:
 564 0000 FF       		.byte	0xff
 565 0001 FF       		.byte	0xff
 566 0002 03       		.byte	0x3
 567 0003 4E       		.byte	0x4e
 568 0004 00000000 		.4byte	.LEHB0-.LFB48
 569 0008 00000000 		.4byte	.LEHE0-.LEHB0
 570 000c 00000000 		.4byte	0
 571 0010 00       		.byte	0
 572 0011 00000000 		.4byte	.LEHB1-.LFB48
GAS LISTING /tmp/ccsVeCnL.s 			page 14


 573 0015 00000000 		.4byte	.LEHE1-.LEHB1
 574 0019 00000000 		.4byte	.L37-.LFB48
 575 001d 00       		.byte	0
 576 001e 00000000 		.4byte	.LEHB2-.LFB48
 577 0022 00000000 		.4byte	.LEHE2-.LEHB2
 578 0026 00000000 		.4byte	0
 579 002a 00       		.byte	0
 580 002b 00000000 		.4byte	.LEHB3-.LFB48
 581 002f 00000000 		.4byte	.LEHE3-.LEHB3
 582 0033 00000000 		.4byte	.L36-.LFB48
 583 0037 00       		.byte	0
 584 0038 00000000 		.4byte	.LEHB4-.LFB48
 585 003c 00000000 		.4byte	.LEHE4-.LEHB4
 586 0040 00000000 		.4byte	0
 587 0044 00       		.byte	0
 588 0045 00000000 		.4byte	.LEHB5-.LFB48
 589 0049 00000000 		.4byte	.LEHE5-.LEHB5
 590 004d 00000000 		.4byte	0
 591 0051 00       		.byte	0
 592              		.text
 594              		.globl	_ZN3TCB7runningE
 595              		.bss
 596              		.align	3
 597              		.set	.LANCHOR0,. + 0
 600              	_ZN3TCB7runningE:
 601 0000 00000000 		.zero	8
 601      00000000 
 602              		.text
 603              	.Letext0:
 604              		.file 2 "src/../h/../h/../lib/hw.h"
 605              		.file 3 "src/../h/../h/MemoryAllocator.h"
 606              		.file 4 "src/../h/scheduler.hpp"
 607              		.file 5 "src/../h/TCB.hpp"
 608              		.file 6 "src/../h/semaphore.hpp"
 609              		.file 7 "src/../h/riscv.hpp"
 610              		.file 8 "src/../h/syscall_c.hpp"
 3989              		.align	3
 3992              	DW.ref.__gxx_personality_v0:
 3993 0000 00000000 		.dword	__gxx_personality_v0
 3993      00000000 
 3994              		.ident	"GCC: (Ubuntu 9.4.0-1ubuntu1~20.04) 9.4.0"
 3995              		.section	.note.GNU-stack,"",@progbits
GAS LISTING /tmp/ccsVeCnL.s 			page 15

